************************************************************************
Hook mode: Usermode
Hook type: Inline/Trampoline
Process: 1484 (explorer.exe)
Victim module: ntdll.dll (0x7c900000 - 0x7c9af000)
Function: ntdll.dll!LdrLoadDll at 0x7c9163a3
Hook address: 0x146a300
Hooking module: <unknown>

Disassembly(0):
0x7c9163a3 e9583fb584       JMP 0x146a300
0x7c9163a8 68f864917c       PUSH DWORD 0x7c9164f8
0x7c9163ad e8f984ffff       CALL 0x7c90e8ab
0x7c9163b2 a1c8b0977c       MOV EAX, [0x7c97b0c8]
0x7c9163b7 8945e4           MOV [EBP-0x1c], EAX
0x7c9163ba 8b               DB 0x8b

Disassembly(1):
0x146a300 8b442410         MOV EAX, [ESP+0x10]
0x146a304 8b4c240c         MOV ECX, [ESP+0xc]
0x146a308 8b542408         MOV EDX, [ESP+0x8]
0x146a30c 56               PUSH ESI
0x146a30d 50               PUSH EAX
0x146a30e 8b44240c         MOV EAX, [ESP+0xc]
0x146a312 51               PUSH ECX
0x146a313 52               PUSH EDX
0x146a314 50               PUSH EAX
0x146a315 e8               DB 0xe8
0x146a316 56               PUSH ESI
0x146a317 6d               INS DWORD [ES:EDI], DX

************************************************************************
Hook mode: Usermode
Hook type: Inline/Trampoline
Process: 1484 (explorer.exe)
Victim module: ntdll.dll (0x7c900000 - 0x7c9af000)
Function: ntdll.dll!NtResumeThread at 0x7c90db20
Hook address: 0x146a330
Hooking module: <unknown>

Disassembly(0):
0x7c90db20 e90bc8b584       JMP 0x146a330
0x7c90db25 ba0003fe7f       MOV EDX, 0x7ffe0300
0x7c90db2a ff12             CALL DWORD [EDX]
0x7c90db2c c20800           RET 0x8
0x7c90db2f 90               NOP
0x7c90db30 b8cf000000       MOV EAX, 0xcf
0x7c90db35 ba               DB 0xba
0x7c90db36 0003             ADD [EBX], AL

Disassembly(1):
0x146a330 53               PUSH EBX
0x146a331 8b5c2408         MOV EBX, [ESP+0x8]
0x146a335 56               PUSH ESI
0x146a336 8bcb             MOV ECX, EBX
0x146a338 e87380ffff       CALL 0x14623b0
0x146a33d 8bf0             MOV ESI, EAX
0x146a33f 83feff           CMP ESI, -0x1
0x146a342 7476             JZ 0x146a3ba
0x146a344 ff               DB 0xff
0x146a345 15               DB 0x15
0x146a346 78e0             JS 0x146a328

************************************************************************
Hook mode: Usermode
Hook type: Inline/Trampoline
Process: 1484 (explorer.exe)
Victim module: ntdll.dll (0x7c900000 - 0x7c9af000)
Function: ntdll.dll!ZwResumeThread at 0x7c90db20
Hook address: 0x146a330
Hooking module: <unknown>

Disassembly(0):
0x7c90db20 e90bc8b584       JMP 0x146a330
0x7c90db25 ba0003fe7f       MOV EDX, 0x7ffe0300
0x7c90db2a ff12             CALL DWORD [EDX]
0x7c90db2c c20800           RET 0x8
0x7c90db2f 90               NOP
0x7c90db30 b8cf000000       MOV EAX, 0xcf
0x7c90db35 ba               DB 0xba
0x7c90db36 0003             ADD [EBX], AL

Disassembly(1):
0x146a330 53               PUSH EBX
0x146a331 8b5c2408         MOV EBX, [ESP+0x8]
0x146a335 56               PUSH ESI
0x146a336 8bcb             MOV ECX, EBX
0x146a338 e87380ffff       CALL 0x14623b0
0x146a33d 8bf0             MOV ESI, EAX
0x146a33f 83feff           CMP ESI, -0x1
0x146a342 7476             JZ 0x146a3ba
0x146a344 ff               DB 0xff
0x146a345 15               DB 0x15
0x146a346 78e0             JS 0x146a328

************************************************************************
Hook mode: Usermode
Hook type: Inline/Trampoline
Process: 1484 (explorer.exe)
Victim module: Secur32.dll (0x77fe0000 - 0x77ff1000)
Function: Secur32.dll!DecryptMessage at 0x77fea64a
Hook address: 0x1469f20
Hooking module: <unknown>

Disassembly(0):
0x77fea64a e9d1f84789       JMP 0x1469f20
0x77fea64f 51               PUSH ECX
0x77fea650 51               PUSH ECX
0x77fea651 56               PUSH ESI
0x77fea652 8d45f8           LEA EAX, [EBP-0x8]
0x77fea655 50               PUSH EAX
0x77fea656 ff7508           PUSH DWORD [EBP+0x8]
0x77fea659 6a01             PUSH 0x1
0x77fea65b e82783ffff       CALL 0x77fe2987
0x77fea660 8bf0             MOV ESI, EAX

Disassembly(1):
0x1469f20 83ec0c           SUB ESP, 0xc
0x1469f23 837c241800       CMP DWORD [ESPo.dll (0x74910000 - 0x74930000)
Function: advapi32.dll!PerfStopProvider
Hook address: 0x74902026
Hooking module: pcwum.DLL

Disassembly(0):
0x74902026 8bff             MOV EDI, EDI
0x74902028 55               PUSH EBP
0x74902029 8bec             MOV EBP, ESP
0x7490202b e879feffff       CALL 0x74901ea9
0x74902030 837d0800         CMP DWORD [EBP+0x8], 0x0
0x74902034 7567             JNZ 0x7490209d
0x74902036 833d4c60907400   CMP DWORD [0x7490604c], 0x0
0x7490203d 74               DB 0x74

************************************************************************
Hook mode: Usermode
Hook type: Import Address Table (IAT)
Process: 956 (svchost.exe)
Victim module: schedsvc.dll (0x71a50000 - 0x71b0a000)
Function: netapi32.dll!NetGetJoinInformation
Hook address: 0x73a12c3f
Hooking module: wkscli.dll

Disassembly(0):
0x73a12c3f 6a1c             PUSH 0x1c
0x73a12c41 68b02ca173       PUSH DWORD 0x73a12cb0
0x73a12c46 e805e5ffff       CALL 0x73a11150
0x73a12c4b 33f6             XOR ESI, ESI
0x73a12c4d 8975e0           MOV [EBP-0x20], ESI
0x73a12c50 39750c           CMP [EBP+0xc], ESI
0x73a12c53 0f               DB 0xf
0x73a12c54 84               DB 0x84
0x73a12c55 a7               CMPSD
0x73a12c56 15               DB 0x15

************************************************************************
Hook mode: Usermode
Hook type: Inline/Trampoline
Process: 1388 (svchost.exe)
Victim module: FirewallAPI.dll (0x746b0000 - 0x74726000)
Function: FirewallAPI.dll!FWGPLock at 0x746cb5dd
Hook address: 0x715f2b90
Hooking module: wfapigp.dll

Disassembly(0):
0x746cb5dd ff2518627174     JMP DWORD [0x74716218]
0x746cb5e3 50               PUSH EAX
0x746cb5e4 e80a000000       CALL 0x746cb5f3
0x746cb5e9 e9d79bffff       JMP 0x746c51c5
0x746cb5ee 90               NOP
0x746cb5ef 90               NOP
0x746cb5f0 90               NOP
0x746cb5f1 90               NOP
0x746cb5f2 90               NOP
0x746cb5f3 8bff             MOV EDI, EDI

Disassembly(1):
0x715f2b90 6a03             PUSH 0x3
0x715f2b92 6a01             PUSH 0x1
0x715f2b94 6a01             PUSH 0x1
0x715f2b96 e8b3110000       CALL 0x715f3d4e
0x715f2b9b c3               RET
0x715f2b9c cc               INT 3
0x715f2b9d cc               INT 3
0x715f2b9e cc               INT 3
0x715f2b9f cc               INT 3
0x715f2ba0 cc               INT 3
0x715f2ba1 cc               INT 3
0x715f2ba2 cc               INT 3
0x715f2ba3 cc               INT 3
0x715f2ba4 cc               INT 3
0x715f2ba5 cc               INT 3
0x715f2ba6 cc               INT 3
0x715f2ba7 cc               INT 3

************************************************************************
Hook mode: Usermode
Hook type: Inline/Trampoline
Process: 1572 (vmtoolsd.exe)
Victim module: deployPkg.dll (0x70d40000 - 0x70e25000)
Function: deployPkg.dll!<unknown> at 0x70d41820
Hook address: 0x747c58f2
Hooking module: MSVCP90.dll

Disassembly(0):
0x70d41820 68e8dbdc70       PUSH DWORD 0x70dcdbe8
0x70d41825 51               PUSH ECX
0x70d41826 ff15e0d1dc70     CALL DWORD [0x70dcd1e0]
0x70d4182c 83c408           ADD ESP, 0x8
0x70d4182f c3               RET
0x70d41830 56               PUSH ESI
0x70d41831 57               PUSH EDI
0x70d41832 8b3de0d1dc70     MOV EDI, [0x70dcd1e0]

Disassembly(1):
0x747c58f2 8bff             MOV EDI, EDI
0x747c58f4 55               PUSH EBP
0x747c58f5 8bec             MOV EBP, ESP
0x747c58f7 ff750c           PUSH DWORD [EBP+0xc]
0x747c58fa 8b4d08           MOV ECX, [EBP+0x8]
0x747c58fd e8a204ffff       CALL 0x747b5da4
0x747c5902 f7d8             NEG EAX
0x747c5904 1bc0             SBB EAX, EAX
0x747c5906 40               INC EAX
0x747c5907 5d               POP EBP
0x747c5908 c3               RET
0x747c5909 cc               INT 3

************************************************************************
Hook mode: Usermode
Hook type: Inline/Trampoline
Process: 1572 (vmtoolsd.exe)
Victim module: deployPkg.dll (0x70d40000 - 0x70e25000)
Function: deployPkg.dll!<unknown> at 0x70d419c0
Hook address: 0x747c58f2
Hooking module: MSVCP90.dll

Disassembly(0):
0x70d419c0 6864dcdc70       PUSH DWORD 0x70dcdc64
0x70d419c5 51               PUSH ECX
0x70d419c6 ff15e0d1dc70     CALL DWORD [0x70dcd1e0]
0x70d419cc 83c408           ADD ESP, 0x8
0x70d419cf c3               RET
0x70d419d0 56               PUSH ESI
0x70d419d1 57               PUSH EDI
0x70d419d2 8b3de0d1dc70     MOV EDI, [0x70dcd1e0]

Disassembly(1):
0x747c58f2 8bff             MOV EDI, EDI
0x747c58f4 55               PUSH EBP
0x747c58f5 8bec             MOV EBP, ESP
0x747c58f7 ff750c           PUSH DWORD [EBP+0xc]
0x747c58fa 8b4d08           MOV ECX, [EBP+0x8]
0x747c58fd e8a204ffff       CALL 0x747b5da4
0x747c5902 f7d8             NEG EAX
0x747c5904 1bc0             SBB EAX, EAX
0x747c5906 40               INC EAX
0x747c5907 5d               POP EBP
0x747c5908 c3               RET
0x747c5909 cc               INT 3

************************************************************************
Hook mode: Usermode
Hook type: Inline/Trampoline
Process: 1572 (vmtoolsd.exe)
Victim module: deployPkg.dll (0x70d40000 - 0x70e25000)
Function: deployPkg.dll!<unknown> at 0x70d41a10
Hook address: 0x747c58f2
Hooking module: MSVCP90.dll

Disassembly(0):
0x70d41a10 6880dcdc70       PUSH DWORD 0x70dcdc80
0x70d41a15 51               PUSH ECX
0x70d41a16 ff15e0d1dc70     CALL DWORD [0x70dcd1e0]
0x70d41a1c 83c408           ADD ESP, 0x8
0x70d41a1f c3               RET
0x70d41a20 56               PUSH ESI
0x70d41a21 57               PUSH EDI
0x70d41a22 8b3de0d1dc70     MOV EDI, [0x70dcd1e0]

Disassembly(1):
0x747c58f2 8bff             MOV EDI, EDI
0x747c58f4 55               PUSH EBP
0x747c58f5 8bec             MOV EBP, ESP
0x747c58f7 ff750c           PUSH DWORD [EBP+0xc]
0x747c58fa 8b4d08           MOV ECX, [EBP+0x8]
0x747c58fd e8a204ffff       CALL 0x747b5da4
0x747c5902 f7d8             NEG EAX
0x747c5904 1bc0             SBB EAX, EAX
0x747c5906 40               INC EAX
0x747c5907 5d               POP EBP
0x747c5908 c3               RET
0x747c5909 cc               INT 3

************************************************************************
Hook mode: Usermode
Hook type: Inline/Trampoline
Process: 1572 (vmtoolsd.exe)
Victim module: deployPkg.dll (0x70d40000 - 0x70e25000)
Function: deployPkg.dll!<unknown> at 0x70d418b0
Hook address: 0x747c58f2
Hooking module: MSVCP90.dll

Disassembly(0):
0x70d418b0 6824dcdc70       PUSH DWORD 0x70dcdc24
0x70d418b5 51               PUSH ECX
0x70d418b6 ff15e0d1dc70     CALL DWORD [0x70dcd1e0]
0x70d418bc 83c408           ADD ESP, 0x8
0x70d418bf c3               RET
0x70d418c0 56               PUSH ESI
0x70d418c1 57               PUSH EDI
0x70d418c2 8b3de0d1dc70     MOV EDI, [0x70dcd1e0]

Disassembly(1):
0x747c58f2 8bff             MOV EDI, EDI
0x747c58f4 55               PUSH EBP
0x747c58f5 8bec             MOV EBP, ESP
0x747c58f7 ff750c           PUSH DWORD [EBP+0xc]
0x747c58fa 8b4d08           MOV ECX, [EBP+0x8]
0x747c58fd e8a204ffff       CALL 0x747b5da4
0x747c5902 f7d8             NEG EAX
0x747c5904 1bc0             SBB EAX, EAX
0x747c5906 40               INC EAX
0x747c5907 5d               POP EBP
0x747c5908 c3               RET
0x747c5909 cc               INT 3

************************************************************************
Hook mode: Usermode
Hook type: Inline/Trampoline
Process: 1572 (vmtoolsd.exe)
Victim module: deployPkg.dll (0x70d40000 - 0x70e25000)
Function: deployPkg.dll!<unknown> at 0x70d41900
Hook address: 0x747c58f2
Hooking module: MSVCP90.dll

Disassembly(0):
0x70d41900 6850dcdc70       PUSH DWORD 0x70dcdc50
0x70d41905 51               PUSH ECX
0x70d41906 ff15e0d1dc70     CALL DWORD [0x70dcd1e0]
0x70d4190c 83c408           ADD ESP, 0x8
0x70d4190f c3               RET
0x70d41910 56               PUSH ESI
0x70d41911 57               PUSH EDI
0x70d41912 8b3de0d1dc70     MOV EDI, [0x70dcd1e0]

Disassembly(1):
0x747c58f2 8bff             MOV EDI, EDI
0x747c58f4 55               PUSH EBP
0x747c58f5 8bec             MOV EBP, ESP
0x747c58f7 ff750c           PUSH DWORD [EBP+0xc]
0x747c58fa 8b4d08           MOV ECX, [EBP+0x8]
0x747c58fd e8a204ffff       CALL 0x747b5da4
0x747c5902 f7d8             NEG EAX
0x747c5904 1bc0             SBB EAX, EAX
0x747c5906 40               INC EAX
0x747c5907 5d               POP EBP
0x747c5908 c3               RET
0x747c5909 cc               INT 3

************************************************************************
Hook mode: Usermode
Hook type: Inline/Trampoline
Process: 1616 (taskhost.exe)
Victim module: ntdll.dll (0x771a0000 - 0x772dc000)
Function: ntdll.dll!LdrLoadDll at 0x772022b8
Hook address: 0x4e5a6e
Hooking module: <unknown>

Disassembly(0):
0x772022b8 e9b1372e89       JMP 0x4e5a6e
0x772022bd 51               PUSH ECX
0x772022be 51               PUSH ECX
0x772022bf a158751f77       MOV EAX, [0x771f7558]
0x772022c4 53               PUSH EBX
0x772022c5 56               PUSH ESI
0x772022c6 8b7508           MOV ESI, [EBP+0x8]
0x772022c9 83c801           OR EAX, 0x1
0x772022cc 57               PUSH EDI
0x772022cd bb               DB 0xbb
0x772022ce a2               DB 0xa2
0x772022cf 7e               DB 0x7e

Disassembly(1):
0x4e5a6e 55               PUSH EBP
0x4e5a6f 8bec             MOV EBP, ESP
0x4e5a71 e802560100       CALL 0x4fb078
0x4e5a76 84c0             TEST AL, AL
0x4e5a78 7507             JNZ 0x4e5a81
0x4e5a7a 5d               POP EBP
0x4e5a7b ff2520375000     JMP DWORD [0x503720]
0x4e5a81 53               PUSH EBX
0x4e5a82 56               PUSH ESI
0x4e5a83 8b7514           MOV ESI, [EBP+0x14]

************************************************************************
Hook mode: Usermode
Hook type: Inline/Trampoline
Process: 1616 (taskhost.exe)
Victim module: ntdll.dll (0x771a0000 - 0x772dc000)
Function: ntdll.dll!NtCreateUserProcess at 0x771e5778
Hook address: 0x4e5945
Hooking module: <unknown>

Disassembly(0):
0x771e5778 e9c8013089       JMP 0x4e5945
0x771e577d ba0003fe7f       MOV EDX, 0x7ffe0300
0x771e5782 ff12             CALL DWORD [EDX]
0x771e5784 c22c00           RET 0x2c
0x771e5787 90               NOP
0x771e5788 b85e000000       MOV EAX, 0x5e
0x771e578d ba               DB 0xba
0x771e578e 0003             ADD [EBX], AL

Disassembly(1):
0x4e5945 55               PUSH EBP
0x4e5946 8bec             MOV EBP, ESP
0x4e5948 81eccc020000     SUB ESP, 0x2cc
0x4e594e 53               PUSH EBX
0x4e594f ff7530           PUSH DWORD [EBP+0x30]
0x4e5952 8b5d08           MOV EBX, [EBP+0x8]
0x4e5955 ff752c           PUSH DWORD [EBP+0x2c]
0x4e5958 ff7528           PUSH DWORD [EBP+0x28]
0x4e595b ff               DB 0xff
0x4e595c 75               DB 0x75

************************************************************************
Hook mode: Usermode
Hook type: Inline/Trampoline
Process: 1616 (taskhost.exe)
Victim module: ntdll.dll (0x771a0000 - 0x772dc000)
Function: ntdll.dll!ZwCreateUserProcess at 0x771e5778
Hook address: 0x4e5945
Hooking module: <unknown>

Disassembly(0):
0x771e5778 e9c8013089       JMP 0x4e5945
0x771e577d ba0003fe7f       MOV EDX, 0x7ffe0300
0x771e5782 ff12             CALL DWORD [EDX]
0x771e5784 c22c00           RET 0x2c
0x771e5787 90               NOP
0x771e5788 b85e000000       MOV EAX, 0x5e
0x771e578d ba               DB 0xba
0x771e578e 0003             ADD [EBX], AL

Disassembly(1):
0x4e5945 55               PUSH EBP
0x4e5946 8bec             MOV EBP, ESP
0x4e5948 81eccc020000     SUB ESP, 0x2cc
0x4e594e 53               PUSH EBX
0x4e594f ff7530           PUSH DWORD [EBP+0x30]
0x4e5952 8b5d08           MOV EBX, [EBP+0x8]
0x4e5955 ff752c           PUSH DWORD [EBP+0x2c]
0x4e5958 ff7528           PUSH DWORD [EBP+0x28]
0x4e595b ff               DB 0xff
0x4e595c 75               DB 0x75

************************************************************************
Hook mode: Usermode
Hook type: Inline/Trampoline
Process: 1616 (taskhost.exe)
Victim module: kernel32.dll (0x75960000 - 0x75a34000)
Function: kernel32.dll!GetFileAttributesExW at 0x759a273d
Hook address: 0x4e5b0e
Hooking module: <unknown>

Disassembly(0):
0x759a273d e9cc33b48a       JMP 0x4e5b0e
0x759a2742 5d               POP EBP
0x759a2743 eb05             JMP 0x759a274a
0x759a2745 90               NOP
0x759a2746 90               NOP
0x759a2747 90               NOP
0x759a2748 90               NOP
0x759a2749 90               NOP
0x759a274a ff25341a9675     JMP DWORD [0x75961a34]
0x759a2750 33c9             XOR ECX, ECX
0x759a2752 39               DB 0x39
0x759a2753 8d               DB 0x8d
0x759a2754 60               PUSHA

Disassembly(1):
0x4e5b0e 55               PUSH EBP
0x4e5b0f 8bec             MOV EBP, ESP
0x4e5b11 817d0c6063f188   CMP DWORD [EBP+0xc], 0x88f16360
0x4e5b18 57               PUSH EDI
0x4e5b19 7551             JNZ 0x4e5b6c
0x4e5b1b 837d0800         CMP DWORD [EBP+0x8], 0x0
0x4e5b1f 744b             JZ 0x4e5b6c
0x4e5b21 e852550100       CALL 0x4fb078

************************************************************************
Hook mode: Usermode
Hook type: Inline/Trampoline
Process: 1616 (taskhost.exe)
Victim module: USER32.dll (0x76f40000 - 0x77009000)
Function: USER32.dll!BeginPaint at 0x76f55d14
Hook address: 0x4f0807
Hooking module: <unknown>

Disassembly(0):
0x76f55d14 e9eeaa5989       JMP 0x4f0807
0x76f55d19 ba0003fe7f       MOV EDX, 0x7ffe0300
0x76f55d1e ff12             CALL DWORD [EDX]
0x76f55d20 c20800           RET 0x8
0x76f55d23 837d0c00         CMP DWORD [EBP+0xc], 0x0
0x76f55d27 0f               DB 0xf
0x76f55d28 853e             TEST [ESI], EDI
0x76f55d2a a801             TEST AL, 0x1

Disassembly(1):
0x4f0807 f605e836500004   TEST BYTE [0x5036e8], 0x4
0x4f080e 56               PUSH ESI
0x4f080f 8b74240c         MOV ESI, [ESP+0xc]
0x4f0813 57               PUSH EDI
0x4f0814 8b7c240c         MOV EDI, [ESP+0xc]
0x4f0818 7450             JZ 0x4f086a
0x4f081a e859a80000       CALL 0x4fb078

************************************************************************
Hook mode: Usermode
Hook type: Inline/Trampoline
Process: 1616 (taskhost.exe)
Victim module: USER32.dll (0x76f40000 - 0x77009000)
Function: USER32.dll!CallWindowProcA at 0x76f72bd3
Hook address: 0x4e564b
Hooking module: <unknown>

Disassembly(0):
0x76f72bd3 e9732a5789       JMP 0x4e564b
0x76f72bd8 6a01             PUSH 0x1
0x76f72bda ff7518           PUSH DWORD [EBP+0x18]
0x76f72bdd ff7514           PUSH DWORD [EBP+0x14]
0x76f72be0 ff7510           PUSH DWORD [EBP+0x10]
0x76f72be3 ff750c           PUSH DWORD [EBP+0xc]
0x76f72be6 ff7508           PUSH DWORD [EBP+0x8]
0x76f72be9 e8               DB 0xe8
0x76f72bea f2               DB 0xf2

Disassembly(1):
0x4e564b 55               PUSH EBP
0x4e564c 8bec             MOV EBP, ESP
0x4e564e f605e836500004   TEST BYTE [0x5036e8], 0x4
0x4e5655 56               PUSH ESI
0x4e5656 8b7510           MOV ESI, [EBP+0x10]
0x4e5659 7421             JZ 0x4e567c
0x4e565b e8185a0100       CALL 0x4fb078
0x4e5660 84c0             TEST AL, AL
0x4e5662 74               DB 0x74

************************************************************************
Hook mode: Usermode
Hook type: Inline/Trampoline
Process: 1616 (taskhost.exe)
Victim module: USER32.dll (0x76f40000 - 0x77009000)
Function: USER32.dll!CallWindowProcW at 0x76f51b3c
Hook address: 0x4e5602
Hooking module: <unknown>

Disassembly(0):
0x76f51b3c e9c13a5989       JMP 0x4e5602
0x76f51b41 6a00             PUSH 0x0
0x76f51b43 ff7518           PUSH DWORD [EBP+0x18]
0x76f51b46 ff7514           PUSH DWORD [EBP+0x14]
0x76f51b49 ff7510           PUSH DWORD [EBP+0x10]
0x76f51b4c ff750c           PUSH DWORD [EBP+0xc]
0x76f51b4f ff7508           PUSH DWORD [EBP+0x8]
0x76f51b52 e8               DB 0xe8
0x76f51b53 89               DB 0x89

Disassembly(1):
0x4e5602 55               PUSH EBP
0x4e5603 8bec             MOV EBP, ESP
0x4e5605 f605e836500004   TEST BYTE [0x5036e8], 0x4
0x4e560c 56               PUSH ESI
0x4e560d 8b7510           MOV ESI, [EBP+0x10]
0x4e5610 7421             JZ 0x4e5633
0x4e5612 e8615a0100       CALL 0x4fb078
0x4e5617 84c0             TEST AL, AL
0x4e5619 74               DB 0x74

************************************************************************
Hook mode: Usermode
Hook type: Inline/Trampoline
Process: 1616 (taskhost.exe)
Victim module: USER32.dll (0x76f40000 - 0x77009000)
Function: USER32.dll!DefDlgProcA at 0x76f671e4
Hook address: 0x4e549e
Hooking module: <unknown>

Disassembly(0):
0x76f671e4 e9b5e25789       JMP 0x4e549e
0x76f671e9 8b4d08           MOV ECX, [EBP+0x8]
0x76f671ec e81f53ffff       CALL 0x76f5c510
0x76f671f1 85c0             TEST EAX, EAX
0x76f671f3 7411             JZ 0x76f67206
0x76f671f5 6a01             PUSH 0x1
0x76f671f7 ff7514           PUSH DWORD [EBP+0x14]
0x76f671fa ff               DB 0xff
0x76f671fb 75               DB 0x75

Disassembly(1):
0x4e549e 55               PUSH EBP
0x4e549f 8bec             MOV EBP, ESP
0x4e54a1 f605e836500004   TEST BYTE [0x5036e8], 0x4
0x4e54a8 56               PUSH ESI
0x4e54a9 8b750c           MOV ESI, [EBP+0xc]
0x4e54ac 7421             JZ 0x4e54cf
0x4e54ae e8c55b0100       CALL 0x4fb078
0x4e54b3 84c0             TEST AL, AL
0x4e54b5 74               DB 0x74

************************************************************************
Hook mode: Usermode
Hook type: Inline/Trampoline
Process: 1616 (taskhost.exe)
Victim module: USER32.dll (0x76f40000 - 0x77009000)
Function: USER32.dll!DefDlgProcW at 0x76f75bc1
Hook address: 0x4e5458
Hooking module: <unknown>

Disassembly(0):
0x76f75bc1 e992f85689       JMP 0x4e5458
0x76f75bc6 8b4d08           MOV ECX, [EBP+0x8]
0x76f75bc9 e84269feff       CALL 0x76f5c510
0x76f75bce 85c0             TEST EAX, EAX
0x76f75bd0 7411             JZ 0x76f75be3
0x76f75bd2 6a00             PUSH 0x0
0x76f75bd4 ff7514           PUSH DWORD [EBP+0x14]
0x76f75bd7 ff               DB 0xff
0x76f75bd8 75               DB 0x75

Disassembly(1):
0x4e5458 55               PUSH EBP
0x4e5459 8bec             MOV EBP, ESP
0x4e545b f605e836500004   TEST BYTE [0x5036e8], 0x4
0x4e5462 56               PUSH ESI
0x4e5463 8b750c           MOV ESI, [EBP+0xc]
0x4e5466 7421             JZ 0x4e5489
0x4e5468 e80b5c0100       CALL 0x4fb078
0x4e546d 84c0             TEST AL, AL
0x4e546f 74               DB 0x74

************************************************************************
Hook mode: Usermode
Hook type: Inline/Trampoline
Process: 1616 (taskhost.exe)
Victim module: USER32.dll (0x76f40000 - 0x77009000)
Function: USER32.dll!DefFrameProcA at 0x76f725b7
Hook address: 0x4e552d
Hooking module: <unknown>

Disassembly(0):
0x76f725b7 e9712f5789       JMP 0x4e552d
0x76f725bc 6a01             PUSH 0x1
0x76f725be ff7518           PUSH DWORD [EBP+0x18]
0x76f725c1 ff7514           PUSH DWORD [EBP+0x14]
0x76f725c4 ff7510           PUSH DWORD [EBP+0x10]
0x76f725c7 ff750c           PUSH DWORD [EBP+0xc]
0x76f725ca ff7508           PUSH DWORD [EBP+0x8]
0x76f725cd e8               DB 0xe8
0x76f725ce b9               DB 0xb9

Disassembly(1):
0x4e552d 55               PUSH EBP
0x4e552e 8bec             MOV EBP, ESP
0x4e5530 f605e836500004   TEST BYTE [0x5036e8], 0x4
0x4e5537 56               PUSH ESI
0x4e5538 8b7510           MOV ESI, [EBP+0x10]
0x4e553b 7421             JZ 0x4e555e
0x4e553d e8365b0100       CALL 0x4fb078
0x4e5542 84c0             TEST AL, AL
0x4e5544 74               DB 0x74

************************************************************************
Hook mode: Usermode
Hook type: Inline/Trampoline
Process: 1616 (taskhost.exe)
Victim module: USER32.dll (0x76f40000 - 0x77009000)
Function: USER32.dll!DefFrameProcW at 0x76f7152b
Hook address: 0x4e54e4
Hooking module: <unknown>

Disassembly(0):
0x76f7152b e9b43f5789       JMP 0x4e54e4
0x76f71530 6a00             PUSH 0x0
0x76f71532 ff7518           PUSH DWORD [EBP+0x18]
0x76f71535 ff7514           PUSH DWORD [EBP+0x14]
0x76f71538 ff7510           PUSH DWORD [EBP+0x10]
0x76f7153b ff750c           PUSH DWORD [EBP+0xc]
0x76f7153e ff7508           PUSH DWORD [EBP+0x8]
0x76f71541 e8               DB 0xe8
0x76f71542 45               INC EBP

Disassembly(1):
0x4e54e4 55               PUSH EBP
0x4e54e5 8bec             MOV EBP, ESP
0x4e54e7 f605e836500004   TEST BYTE [0x5036e8], 0x4
0x4e54ee 56               PUSH ESI
0x4e54ef 8b7510           MOV ESI, [EBP+0x10]
0x4e54f2 7421             JZ 0x4e5515
0x4e54f4 e87f5b0100       CALL 0x4fb078
0x4e54f9 84c0             TEST AL, AL
0x4e54fb 74               DB 0x74

************************************************************************
Hook mode: Usermode
Hook type: Inline/Trampoline
Process: 1616 (taskhost.exe)
Victim module: USER32.dll (0x76f40000 - 0x77009000)
Function: USER32.dll!DefMDIChildProcA at 0x76f725db
Hook address: 0x4e55bc
Hooking module: <unknown>

Disassembly(0):
0x76f725db e9dc2f5789       JMP 0x4e55bc
0x76f725e0 6a01             PUSH 0x1
0x76f725e2 ff7514           PUSH DWORD [EBP+0x14]
0x76f725e5 ff7510           PUSH DWORD [EBP+0x10]
0x76f725e8 ff750c           PUSH DWORD [EBP+0xc]
0x76f725eb ff7508           PUSH DWORD [EBP+0x8]
0x76f725ee e892f6ffff       CALL 0x76f71c85

Disassembly(1):
0x4e55bc 55               PUSH EBP
0x4e55bd 8bec             MOV EBP, ESP
0x4e55bf f605e836500004   TEST BYTE [0x5036e8], 0x4
0x4e55c6 56               PUSH ESI
0x4e55c7 8b750c           MOV ESI, [EBP+0xc]
0x4e55ca 7421             JZ 0x4e55ed
0x4e55cc e8a75a0100       CALL 0x4fb078
0x4e55d1 84c0             TEST AL, AL
0x4e55d3 74               DB 0x74

************************************************************************
Hook mode: Usermode
Hook type: Inline/Trampoline
Process: 1616 (taskhost.exe)
Victim module: USER32.dll (0x76f40000 - 0x77009000)
Function: USER32.dll!DefMDIChildProcW at 0x76f7150a
Hook address: 0x4e5576
Hooking module: <unknown>

Disassembly(0):
0x76f7150a e967405789       JMP 0x4e5576
0x76f7150f 6a00             PUSH 0x0
0x76f71511 ff7514           PUSH DWORD [EBP+0x14]
0x76f71514 ff7510           PUSH DWORD [EBP+0x10]
0x76f71517 ff750c           PUSH DWORD [EBP+0xc]
0x76f7151a ff7508           PUSH DWORD [EBP+0x8]
0x76f7151d e863070000       CALL 0x76f71c85

Disassembly(1):
0x4e5576 55               PUSH EBP
0x4e5577 8bec             MOV EBP, ESP
0x4e5579 f605e836500004   TEST BYTE [0x5036e8], 0x4
0x4e5580 56               PUSH ESI
0x4e5581 8b750c           MOV ESI, [EBP+0xc]
0x4e5584 7421             JZ 0x4e55a7
0x4e5586 e8ed5a0100       CALL 0x4fb078
0x4e558b 84c0             TEST AL, AL
0x4e558d 74               DB 0x74

************************************************************************
Hook mode: Usermode
Hook type: Inline/Trampoline
Process: 1616 (taskhost.exe)
Victim module: USER32.dll (0x76f40000 - 0x77009000)
Function: USER32.dll!DefWindowProcA at 0x76f4bb1c
Hook address: 0x4e5412
Hooking module: <unknown>

Disassembly(0):
0x76f4bb1c e9f1985989       JMP 0x4e5412
0x76f4bb21 f4               HLT
0x76f4bb22 76e8             JBE 0x76f4bb0c
0x76f4bb24 f8               CLC
0x76f4bb25 0801             OR [ECX], AL
0x76f4bb27 00e8             ADD AL, CH
0x76f4bb29 830901           OR DWORD [ECX], 0x1
0x76f4bb2c 00833dd89afa     ADD [EBX-0x56527c3], AL
0x76f4bb32 7600             JBE 0x76f4bb34

Disassembly(1):
0x4e5412 55               PUSH EBP
0x4e5413 8bec             MOV EBP, ESP
0x4e5415 f605e836500004   TEST BYTE [0x5036e8], 0x4
0x4e541c 56               PUSH ESI
0x4e541d 8b750c           MOV ESI, [EBP+0xc]
0x4e5420 7421             JZ 0x4e5443
0x4e5422 e8515c0100       CALL 0x4fb078
0x4e5427 84c0             TEST AL, AL
0x4e5429 74               DB 0x74

************************************************************************
Hook mode: Usermode
Hook type: Inline/Trampoline
Process: 1616 (taskhost.exe)
Victim module: USER32.dll (0x76f40000 - 0x77009000)
Function: USER32.dll!DefWindowProcW at 0x76f5507d
Hook address: 0x4e53cc
Hooking module: <unknown>

Disassembly(0):
0x76f5507d e94a035989       JMP 0x4e53cc
0x76f55082 f5               CMC
0x76f55083 76e8             JBE 0x76f5506d
0x76f55085 97               XCHG EDI, EAX
0x76f55086 7300             JAE 0x76f55088
0x76f55088 00e8             ADD AL, CH
0x76f5508a 22740000         AND DH, [EAX+EAX+0x0]
0x76f5508e 833dd89afa7600   CMP DWORD [0x76fa9ad8], 0x0

Disassembly(1):
0x4e53cc 55               PUSH EBP
0x4e53cd 8bec             MOV EBP, ESP
0x4e53cf f605e836500004   TEST BYTE [0x5036e8], 0x4
0x4e53d6 56               PUSH ESI
0x4e53d7 8b750c           MOV ESI, [EBP+0xc]
0x4e53da 7421             JZ 0x4e53fd
0x4e53dc e8975c0100       CALL 0x4fb078
0x4e53e1 84c0             TEST AL, AL
0x4e53e3 74               DB 0x74

************************************************************************
Hook mode: Usermode
Hook type: Inline/Trampoline
Process: 1616 (taskhost.exe)
Victim module: USER32.dll (0x76f40000 - 0x77009000)
Function: USER32.dll!EndPaint at 0x76f55d42
Hook address: 0x4f0877
Hooking module: <unknown>

Disassembly(0):
0x76f55d42 e930ab5989       JMP 0x4f0877
0x76f55d47 ba0003fe7f       MOV EDX, 0x7ffe0300
0x76f55d4c ff12             CALL DWORD [EDX]
0x76f55d4e c20800           RET 0x8
0x76f55d51 90               NOP
0x76f55d52 90               NOP
0x76f55d53 90               NOP
0x76f55d54 90               NOP
0x76f55d55 90               NOP
0x76f55d56 8bff             MOV EDI, EDI
0x76f55d58 55               PUSH EBP
0x76f55d59 8b               DB 0x8b

Disassembly(1):
0x4f0877 f605e836500004   TEST BYTE [0x5036e8], 0x4
0x4f087e 56               PUSH ESI
0x4f087f 8b742408         MOV ESI, [ESP+0x8]
0x4f0883 7423             JZ 0x4f08a8
0x4f0885 e8eea70000       CALL 0x4fb078
0x4f088a 84c0             TEST AL, AL
0x4f088c 741a             JZ 0x4f08a8
0x4f088e ff               DB 0xff

************************************************************************
Hook mode: Usermode
Hook type: Inline/Trampoline
Process: 1616 (taskhost.exe)
Victim module: USER32.dll (0x76f40000 - 0x77009000)
Function: USER32.dll!GetCapture at 0x76f49dc7
Hook address: 0x4ed9b3
Hooking module: <unknown>

Disassembly(0):
0x76f49dc7 e9e73b5a89       JMP 0x4ed9b3
0x76f49dcc 83b8080b000000   CMP DWORD [EAX+0xb08], 0x0
0x76f49dd3 0f8582c80200     JNZ 0x76f7665b
0x76f49dd9 33c0             XOR EAX, EAX
0x76f49ddb c3               RET
0x76f49ddc 3b5d0c           CMP EBX, [EBP+0xc]

Disassembly(1):
0x4ed9b3 f605e836500004   TEST BYTE [0x5036e8], 0x4
0x4ed9ba 56               PUSH ESI
0x4ed9bb 744b             JZ 0x4eda08
0x4ed9bd e8b6d60000       CALL 0x4fb078
0x4ed9c2 84c0             TEST AL, AL
0x4ed9c4 7442             JZ 0x4eda08
0x4ed9c6 ff               DB 0xff
0x4ed9c7 15               DB 0x15
0x4ed9c8 7412             JZ 0x4ed9dc
0x4ed9ca 4e               DEC ESI

************************************************************************
Hook mode: Usermode
Hook type: Inline/Trampoline
Process: 1616 (taskhost.exe)
Victim module: USER32.dll (0x76f40000 - 0x77009000)
Function: USER32.dll!GetClipboardData at 0x76f62ba7
Hook address: 0x4efa85
Hooking module: <unknown>

Disassembly(0):
0x76f62ba7 e9d9ce5889       JMP 0x4efa85
0x76f62bac 83ec2c           SUB ESP, 0x2c
0x76f62baf 57               PUSH EDI
0x76f62bb0 8d45d4           LEA EAX, [EBP-0x2c]
0x76f62bb3 50               PUSH EAX
0x76f62bb4 ff7508           PUSH DWORD [EBP+0x8]
0x76f62bb7 e8d7ffffff       CALL 0x76f62b93
0x76f62bbc 33ff             XOR EDI, EDI
0x76f62bbe 89               DB 0x89

Disassembly(1):
0x4efa85 55               PUSH EBP
0x4efa86 8bec             MOV EBP, ESP
0x4efa88 56               PUSH ESI
0x4efa89 8b7508           MOV ESI, [EBP+0x8]
0x4efa8c 57               PUSH EDI
0x4efa8d 56               PUSH ESI
0x4efa8e ff1544144e00     CALL DWORD [0x4e1444]
0x4efa94 8bf8             MOV EDI, EAX
0x4efa96 897d08           MOV [EBP+0x8], EDI
0x4efa99 e8               DB 0xe8
0x4efa9a da               DB 0xda
0x4efa9b b500             MOV CH, 0x0

************************************************************************
Hook mode: Usermode
Hook type: Inline/Trampoline
Process: 1616 (taskhost.exe)
Victim module: USER32.dll (0x76f40000 - 0x77009000)
Function: USER32.dll!GetCursorPos at 0x76f4a4b3
Hook address: 0x4ed885
Hooking module: <unknown>

Disassembly(0):
0x76f4a4b3 e9cd335a89       JMP 0x4ed885
0x76f4a4b8 6a69             PUSH 0x69
0x76f4a4ba 6a01             PUSH 0x1
0x76f4a4bc ff7508           PUSH DWORD [EBP+0x8]
0x76f4a4bf e808370000       CALL 0x76f4dbcc
0x76f4a4c4 5d               POP EBP
0x76f4a4c5 c20400           RET 0x4
0x76f4a4c8 90               NOP
0x76f4a4c9 90               NOP
0x76f4a4ca 90               NOP

Disassembly(1):
0x4ed885 f605e836500004   TEST BYTE [0x5036e8], 0x4
0x4ed88c 7438             JZ 0x4ed8c6
0x4ed88e e8e5d70000       CALL 0x4fb078
0x4ed893 84c0             TEST AL, AL
0x4ed895 742f             JZ 0x4ed8c6
0x4ed897 8b442404         MOV EAX, [ESP+0x4]
0x4ed89b 85c0             TEST EAX, EAX

************************************************************************
Hook mode: Usermode
Hook type: Inline/Trampoline
Process: 1616 (taskhost.exe)
Victim module: USER32.dll (0x76f40000 - 0x77009000)
Function: USER32.dll!GetDC at 0x76f5544c
Hook address: 0x4f0912
Hooking module: <unknown>

Disassembly(0):
0x76f5544c e9c1b45989       JMP 0x4f0912
0x76f55451 ba0003fe7f       MOV EDX, 0x7ffe0300
0x76f55456 ff12             CALL DWORD [EDX]
0x76f55458 c20400           RET 0x4
0x76f5545b 90               NOP
0x76f5545c 90               NOP
0x76f5545d 90               NOP
0x76f5545e 90               NOP
0x76f5545f 90               NOP
0x76f55460 8bff             MOV EDI, EDI
0x76f55462 55               PUSH EBP
0x76f55463 8b               DB 0x8b

Disassembly(1):
0x4f0912 f605e836500004   TEST BYTE [0x5036e8], 0x4
0x4f0919 56               PUSH ESI
0x4f091a 8b742408         MOV ESI, [ESP+0x8]
0x4f091e 7426             JZ 0x4f0946
0x4f0920 e853a70000       CALL 0x4fb078
0x4f0925 84c0             TEST AL, AL
0x4f0927 741d             JZ 0x4f0946
0x4f0929 ff               DB 0xff

************************************************************************
Hook mode: Usermode
Hook type: Inline/Trampoline
Process: 1616 (taskhost.exe)
Victim module: USER32.dll (0x76f40000 - 0x77009000)
Function: USER32.dll!GetDCEx at 0x76f52d57
Hook address: 0x4f08b7
Hooking module: <unknown>

Disassembly(0):
0x76f52d57 e95bdb5989       JMP 0x4f08b7
0x76f52d5c ba0003fe7f       MOV EDX, 0x7ffe0300
0x76f52d61 ff12             CALL DWORD [EDX]
0x76f52d63 c20c00           RET 0xc
0x76f52d66 85ff             TEST EDI, EDI
0x76f52d68 0f84200c0000     JZ 0x76f5398e
0x76f52d6e 85               DB 0x85

Disassembly(1):
0x4f08b7 55               PUSH EBP
0x4f08b8 8bec             MOV EBP, ESP
0x4f08ba f605e836500004   TEST BYTE [0x5036e8], 0x4
0x4f08c1 56               PUSH ESI
0x4f08c2 57               PUSH EDI
0x4f08c3 8b7d08           MOV EDI, [EBP+0x8]
0x4f08c6 7437             JZ 0x4f08ff
0x4f08c8 e8aba70000       CALL 0x4fb078
0x4f08cd 84c0             TEST AL, AL

************************************************************************
Hook mode: Usermode
Hook type: Inline/Trampoline
Process: 1616 (taskhost.exe)
Victim module: USER32.dll (0x76f40000 - 0x77009000)
Function: USER32.dll!GetMessageA at 0x76f51899
Hook address: 0x4eda7a
Hooking module: <unknown>

Disassembly(0):
0x76f51899 e9dcc15989       JMP 0x4eda7a
0x76f5189e 8b5510           MOV EDX, [EBP+0x10]
0x76f518a1 8b4d14           MOV ECX, [EBP+0x14]
0x76f518a4 56               PUSH ESI
0x76f518a5 8bf2             MOV ESI, EDX
0x76f518a7 0bf1             OR ESI, ECX
0x76f518a9 b80000feff       MOV EAX, 0xfffe0000
0x76f518ae 85f0             TEST EAX, ESI
0x76f518b0 0f               DB 0xf

Disassembly(1):
0x4eda7a 56               PUSH ESI
0x4eda7b 8b742408         MOV ESI, [ESP+0x8]
0x4eda7f 57               PUSH EDI
0x4eda80 ff742418         PUSH DWORD [ESP+0x18]
0x4eda84 ff742418         PUSH DWORD [ESP+0x18]
0x4eda88 ff742418         PUSH DWORD [ESP+0x18]
0x4eda8c 56               PUSH ESI
0x4eda8d ff               DB 0xff
0x4eda8e 15               DB 0x15
0x4eda8f 98               CWDE
0x4eda90 144e             ADC AL, 0x4e

************************************************************************
Hook mode: Usermode
Hook type: Inline/Trampoline
Process: 1616 (taskhost.exe)
Victim module: USER32.dll (0x76f40000 - 0x77009000)
Function: USER32.dll!GetMessagePos at 0x76f76703
Hook address: 0x4ed853
Hooking module: <unknown>

Disassembly(0):
0x76f76703 e94b715789       JMP 0x4ed853
0x76f76708 fe               DB 0xfe
0x76f76709 ffc3             INC EBX
0x76f7670b 83650c00         AND DWORD [EBP+0xc], 0x0
0x76f7670f e9a1f0fdff       JMP 0x76f557b5
0x76f76714 8b430c           MOV EAX, [EBX+0xc]
0x76f76717 3bc2             CMP EAX, EDX
0x76f76719 0f               DB 0xf
0x76f7671a 85               DB 0x85

Disassembly(1):
0x4ed853 f605e836500004   TEST BYTE [0x5036e8], 0x4
0x4ed85a 7423             JZ 0x4ed87f
0x4ed85c e817d80000       CALL 0x4fb078
0x4ed861 84c0             TEST AL, AL
0x4ed863 741a             JZ 0x4ed87f
0x4ed865 8b0db8235000     MOV ECX, [0x5023b8]

************************************************************************
Hook mode: Usermode
Hook type: Inline/Trampoline
Process: 1616 (taskhost.exe)
Victim module: USER32.dll (0x76f40000 - 0x77009000)
Function: USER32.dll!GetMessageW at 0x76f5cde8
Hook address: 0x4eda52
Hooking module: <unknown>

Disassembly(0):
0x76f5cde8 e9650c5989       JMP 0x4eda52
0x76f5cded 8b5510           MOV EDX, [EBP+0x10]
0x76f5cdf0 8b4d14           MOV ECX, [EBP+0x14]
0x76f5cdf3 0bd1             OR EDX, ECX
0x76f5cdf5 b80000feff       MOV EAX, 0xfffe0000
0x76f5cdfa 85d0             TEST EAX, EDX
0x76f5cdfc 0f               DB 0xf
0x76f5cdfd 857801           TEST [EAX+0x1], EDI

Disassembly(1):
0x4eda52 56               PUSH ESI
0x4eda53 8b742408         MOV ESI, [ESP+0x8]
0x4eda57 57               PUSH EDI
0x4eda58 ff742418         PUSH DWORD [ESP+0x18]
0x4eda5c ff742418         PUSH DWORD [ESP+0x18]
0x4eda60 ff742418         PUSH DWORD [ESP+0x18]
0x4eda64 56               PUSH ESI
0x4eda65 ff               DB 0xff
0x4eda66 15               DB 0x15
0x4eda67 10144e           ADC [ESI+ECX*2], DL

************************************************************************
Hook mode: Usermode
Hook type: Inline/Trampoline
Process: 1616 (taskhost.exe)
Victim module: USER32.dll (0x76f40000 - 0x77009000)
Function: USER32.dll!GetUpdateRect at 0x76f4a575
Hook address: 0x4f09d0
Hooking module: <unknown>

Disassembly(0):
0x76f4a575 e956645a89       JMP 0x4f09d0
0x76f4a57a 8b4d08           MOV ECX, [EBP+0x8]
0x76f4a57d e88e1f0100       CALL 0x76f5c510
0x76f4a582 85c0             TEST EAX, EAX
0x76f4a584 7423             JZ 0x76f4a5a9
0x76f4a586 83786800         CMP DWORD [EAX+0x68], 0x0
0x76f4a58a 7535             JNZ 0x76f4a5c1
0x76f4a58c f6               DB 0xf6

Disassembly(1):
0x4f09d0 55               PUSH EBP
0x4f09d1 8bec             MOV EBP, ESP
0x4f09d3 f605e836500004   TEST BYTE [0x5036e8], 0x4
0x4f09da 53               PUSH EBX
0x4f09db 8b5d08           MOV EBX, [EBP+0x8]
0x4f09de 56               PUSH ESI
0x4f09df 746f             JZ 0x4f0a50
0x4f09e1 e892a60000       CALL 0x4fb078
0x4f09e6 84c0             TEST AL, AL

************************************************************************
Hook mode: Usermode
Hook type: Inline/Trampoline
Process: 1616 (taskhost.exe)
Victim module: USER32.dll (0x76f40000 - 0x77009000)
Function: USER32.dll!GetUpdateRgn at 0x76f71c07
Hook address: 0x4f0a63
Hooking module: <unknown>

Disassembly(0):
0x76f71c07 e957ee5789       JMP 0x4f0a63
0x76f71c0c 56               PUSH ESI
0x76f71c0d 33f6             XOR ESI, ESI
0x76f71c0f 39750c           CMP [EBP+0xc], ESI
0x76f71c12 0f8415710000     JZ 0x76f78d2d
0x76f71c18 8b4d08           MOV ECX, [EBP+0x8]
0x76f71c1b e8               DB 0xe8
0x76f71c1c f0a8fe           TEST AL, 0xfe

Disassembly(1):
0x4f0a63 55               PUSH EBP
0x4f0a64 8bec             MOV EBP, ESP
0x4f0a66 f605e836500004   TEST BYTE [0x5036e8], 0x4
0x4f0a6d 53               PUSH EBX
0x4f0a6e 8b5d08           MOV EBX, [EBP+0x8]
0x4f0a71 56               PUSH ESI
0x4f0a72 7470             JZ 0x4f0ae4
0x4f0a74 e8ffa50000       CALL 0x4fb078
0x4f0a79 84c0             TEST AL, AL

************************************************************************
Hook mode: Usermode
Hook type: Inline/Trampoline
Process: 1616 (taskhost.exe)
Victim module: USER32.dll (0x76f40000 - 0x77009000)
Function: USER32.dll!GetWindowDC at 0x76f54ab7
Hook address: 0x4f0951
Hooking module: <unknown>

Disassembly(0):
0x76f54ab7 e995be5989       JMP 0x4f0951
0x76f54abc ba0003fe7f       MOV EDX, 0x7ffe0300
0x76f54ac1 ff12             CALL DWORD [EDX]
0x76f54ac3 c20400           RET 0x4
0x76f54ac6 80faff           CMP DL, 0xff
0x76f54ac9 0f85cc080000     JNZ 0x76f5539b

Disassembly(1):
0x4f0951 f605e836500004   TEST BYTE [0x5036e8], 0x4
0x4f0958 56               PUSH ESI
0x4f0959 8b742408         MOV ESI, [ESP+0x8]
0x4f095d 7426             JZ 0x4f0985
0x4f095f e814a70000       CALL 0x4fb078
0x4f0964 84c0             TEST AL, AL
0x4f0966 741d             JZ 0x4f0985
0x4f0968 ff               DB 0xff

************************************************************************
Hook mode: Usermode
Hook type: Inline/Trampoline
Process: 1616 (taskhost.exe)
Victim module: USER32.dll (0x76f40000 - 0x77009000)
Function: USER32.dll!OpenInputDesktop at 0x76f45c39
Hook address: 0x4e535e
Hooking module: <unknown>

Disassembly(0):
0x76f45c39 e920f75989       JMP 0x4e535e
0x76f45c3e ba0003fe7f       MOV EDX, 0x7ffe0300
0x76f45c43 ff12             CALL DWORD [EDX]
0x76f45c45 c20c00           RET 0xc
0x76f45c48 0000             ADD [EAX], AL
0x76f45c4a 895de0           MOV [EBP-0x20], EBX
0x76f45c4d e9               DB 0xe9
0x76f45c4e 1e               PUSH DS
0x76f45c4f 3d               DB 0x3d
0x76f45c50 00               DB 0x0

Disassembly(1):
0x4e535e 55               PUSH EBP
0x4e535f 8bec             MOV EBP, ESP
0x4e5361 83ec64           SUB ESP, 0x64
0x4e5364 f605e836500004   TEST BYTE [0x5036e8], 0x4
0x4e536b 742e             JZ 0x4e539b
0x4e536d e8065d0100       CALL 0x4fb078
0x4e5372 84c0             TEST AL, AL
0x4e5374 7425             JZ 0x4e539b

************************************************************************
Hook mode: Usermode
Hook type: Inline/Trampoline
Process: 1616 (taskhost.exe)
Victim module: USER32.dll (0x76f40000 - 0x77009000)
Function: USER32.dll!PeekMessageA at 0x76f519a5
Hook address: 0x4edacd
Hooking module: <unknown>

Disassembly(0):
0x76f519a5 e923c15989       JMP 0x4edacd
0x76f519aa 53               PUSH EBX
0x76f519ab 56               PUSH ESI
0x76f519ac 648b3518000000   MOV ESI, [FS:0x18]
0x76f519b3 33c9             XOR ECX, ECX
0x76f519b5 81c6cc060000     ADD ESI, 0x6cc
0x76f519bb 57               PUSH EDI
0x76f519bc 39               DB 0x39

Disassembly(1):
0x4edacd 55               PUSH EBP
0x4edace 8bec             MOV EBP, ESP
0x4edad0 56               PUSH ESI
0x4edad1 8b7508           MOV ESI, [EBP+0x8]
0x4edad4 57               PUSH EDI
0x4edad5 ff7518           PUSH DWORD [EBP+0x18]
0x4edad8 ff7514           PUSH DWORD [EBP+0x14]
0x4edadb ff7510           PUSH DWORD [EBP+0x10]
0x4edade ff750c           PUSH DWORD [EBP+0xc]
0x4edae1 56               PUSH ESI
0x4edae2 ff               DB 0xff
0x4edae3 15               DB 0x15
0x4edae4 54               PUSH ESP

************************************************************************
Hook mode: Usermode
Hook type: Inline/Trampoline
Process: 1616 (taskhost.exe)
Victim module: USER32.dll (0x76f40000 - 0x77009000)
Function: USER32.dll!PeekMessageW at 0x76f5634a
Hook address: 0x4edaa2
Hooking module: <unknown>

Disassembly(0):
0x76f5634a e953775989       JMP 0x4edaa2
0x76f5634f 53               PUSH EBX
0x76f56350 56               PUSH ESI
0x76f56351 648b3518000000   MOV ESI, [FS:0x18]
0x76f56358 33c9             XOR ECX, ECX
0x76f5635a 81c6cc060000     ADD ESI, 0x6cc
0x76f56360 57               PUSH EDI
0x76f56361 39               DB 0x39

Disassembly(1):
0x4edaa2 55               PUSH EBP
0x4edaa3 8bec             MOV EBP, ESP
0x4edaa5 56               PUSH ESI
0x4edaa6 8b7508           MOV ESI, [EBP+0x8]
0x4edaa9 57               PUSH EDI
0x4edaaa ff7518           PUSH DWORD [EBP+0x18]
0x4edaad ff7514           PUSH DWORD [EBP+0x14]
0x4edab0 ff7510           PUSH DWORD [EBP+0x10]
0x4edab3 ff750c           PUSH DWORD [EBP+0xc]
0x4edab6 56               PUSH ESI
0x4edab7 ff               DB 0xff
0x4edab8 15               DB 0x15
0x4edab9 50               PUSH EAX

************************************************************************
Hook mode: Usermode
Hook type: Inline/Trampoline
Process: 1616 (taskhost.exe)
Victim module: USER32.dll (0x76f40000 - 0x77009000)
Function: USER32.dll!RegisterClassA at 0x76f4bc6a
Hook address: 0x4e571d
Hooking module: <unknown>

Disassembly(0):
0x76f4bc6a e9ae9a5989       JMP 0x4e571d
0x76f4bc6f 83ec30           SUB ESP, 0x30
0x76f4bc72 8b4508           MOV EAX, [EBP+0x8]
0x76f4bc75 56               PUSH ESI
0x76f4bc76 57               PUSH EDI
0x76f4bc77 6a09             PUSH 0x9
0x76f4bc79 59               POP ECX
0x76f4bc7a 8d7004           LEA ESI, [EAX+0x4]
0x76f4bc7d 8b00             MOV EAX, [EAX]
0x76f4bc7f 6a01             PUSH 0x1
0x76f4bc81 8d               DB 0x8d

Disassembly(1):
0x4e571d 55               PUSH EBP
0x4e571e 8bec             MOV EBP, ESP
0x4e5720 83ec28           SUB ESP, 0x28
0x4e5723 f605e836500004   TEST BYTE [0x5036e8], 0x4
0x4e572a 56               PUSH ESI
0x4e572b 8b7508           MOV ESI, [EBP+0x8]
0x4e572e 742e             JZ 0x4e575e
0x4e5730 e843590100       CALL 0x4fb078

************************************************************************
Hook mode: Usermode
Hook type: Inline/Trampoline
Process: 1616 (taskhost.exe)
Victim module: USER32.dll (0x76f40000 - 0x77009000)
Function: USER32.dll!RegisterClassExA at 0x76f46293
Hook address: 0x4e57bc
Hooking module: <unknown>

Disassembly(0):
0x76f46293 e924f55989       JMP 0x4e57bc
0x76f46298 8b4508           MOV EAX, [EBP+0x8]
0x76f4629b 833830           CMP DWORD [EAX], 0x30
0x76f4629e 0f853e0a0400     JNZ 0x76f86ce2
0x76f462a4 6a01             PUSH 0x1
0x76f462a6 6880000000       PUSH DWORD 0x80

Disassembly(1):
0x4e57bc 55               PUSH EBP
0x4e57bd 8bec             MOV EBP, ESP
0x4e57bf 83ec30           SUB ESP, 0x30
0x4e57c2 f605e836500004   TEST BYTE [0x5036e8], 0x4
0x4e57c9 56               PUSH ESI
0x4e57ca 8b7508           MOV ESI, [EBP+0x8]
0x4e57cd 7433             JZ 0x4e5802
0x4e57cf e8a4580100       CALL 0x4fb078

************************************************************************
Hook mode: Usermode
Hook type: Inline/Trampoline
Process: 1616 (taskhost.exe)
Victim module: USER32.dll (0x76f40000 - 0x77009000)
Function: USER32.dll!RegisterClassExW at 0x76f50162
Hook address: 0x4e576a
Hooking module: <unknown>

Disassembly(0):
0x76f50162 e903565989       JMP 0x4e576a
0x76f50167 8b4508           MOV EAX, [EBP+0x8]
0x76f5016a 833830           CMP DWORD [EAX], 0x30
0x76f5016d 0f85899e0200     JNZ 0x76f79ffc
0x76f50173 6a01             PUSH 0x1
0x76f50175 6880000000       PUSH DWORD 0x80

Disassembly(1):
0x4e576a 55               PUSH EBP
0x4e576b 8bec             MOV EBP, ESP
0x4e576d 83ec30           SUB ESP, 0x30
0x4e5770 f605e836500004   TEST BYTE [0x5036e8], 0x4
0x4e5777 56               PUSH ESI
0x4e5778 8b7508           MOV ESI, [EBP+0x8]
0x4e577b 7433             JZ 0x4e57b0
0x4e577d e8f6580100       CALL 0x4fb078

************************************************************************
Hook mode: Usermode
Hook type: Inline/Trampoline
Process: 1616 (taskhost.exe)
Victim module: USER32.dll (0x76f40000 - 0x77009000)
Function: USER32.dll!RegisterClassW at 0x76f4ed4a
Hook address: 0x4e56d0
Hooking module: <unknown>

Disassembly(0):
0x76f4ed4a e981695989       JMP 0x4e56d0
0x76f4ed4f 83ec30           SUB ESP, 0x30
0x76f4ed52 8b4508           MOV EAX, [EBP+0x8]
0x76f4ed55 56               PUSH ESI
0x76f4ed56 57               PUSH EDI
0x76f4ed57 6a09             PUSH 0x9
0x76f4ed59 59               POP ECX
0x76f4ed5a 8d7004           LEA ESI, [EAX+0x4]
0x76f4ed5d 8b00             MOV EAX, [EAX]
0x76f4ed5f 6a01             PUSH 0x1
0x76f4ed61 8d               DB 0x8d

Disassembly(1):
0x4e56d0 55               PUSH EBP
0x4e56d1 8bec             MOV EBP, ESP
0x4e56d3 83ec28           SUB ESP, 0x28
0x4e56d6 f605e836500004   TEST BYTE [0x5036e8], 0x4
0x4e56dd 56               PUSH ESI
0x4e56de 8b7508           MOV ESI, [EBP+0x8]
0x4e56e1 742e             JZ 0x4e5711
0x4e56e3 e890590100       CALL 0x4fb078

************************************************************************
Hook mode: Usermode
Hook type: Inline/Trampoline
Process: 1616 (taskhost.exe)
Victim module: USER32.dll (0x76f40000 - 0x77009000)
Function: USER32.dll!ReleaseCapture at 0x76f769f2
Hook address: 0x4ed963
Hooking module: <unknown>

Disassembly(0):
0x76f769f2 e96c6f5789       JMP 0x4ed963
0x76f769f7 fe               DB 0xfe
0x76f769f8 ffc3             INC EBX
0x76f769fa 90               NOP
0x76f769fb 90               NOP
0x76f769fc 90               NOP
0x76f769fd 90               NOP
0x76f769fe 90               NOP
0x76f769ff 8bff             MOV EDI, EDI
0x76f76a01 55               PUSH EBP
0x76f76a02 8bec             MOV EBP, ESP
0x76f76a04 6a30             PUSH 0x30
0x76f76a06 ff7508           PUSH DWORD [EBP+0x8]
0x76f76a09 e8               DB 0xe8

Disassembly(1):
0x4ed963 f605e836500004   TEST BYTE [0x5036e8], 0x4
0x4ed96a 7441             JZ 0x4ed9ad
0x4ed96c e807d70000       CALL 0x4fb078
0x4ed971 84c0             TEST AL, AL
0x4ed973 7438             JZ 0x4ed9ad
0x4ed975 ff1574124e00     CALL DWORD [0x4e1274]

************************************************************************
Hook mode: Usermode
Hook type: Inline/Trampoline
Process: 1616 (taskhost.exe)
Victim module: USER32.dll (0x76f40000 - 0x77009000)
Function: USER32.dll!ReleaseDC at 0x76f55421
Hook address: 0x4f0990
Hooking module: <unknown>

Disassembly(0):
0x76f55421 e96ab55989       JMP 0x4f0990
0x76f55426 837d0c00         CMP DWORD [EBP+0xc], 0x0
0x76f5542a 0f846b380200     JZ 0x76f78c9b
0x76f55430 ff750c           PUSH DWORD [EBP+0xc]
0x76f55433 ff152013f476     CALL DWORD [0x76f41320]

Disassembly(1):
0x4f0990 f605e836500004   TEST BYTE [0x5036e8], 0x4
0x4f0997 56               PUSH ESI
0x4f0998 8b74240c         MOV ESI, [ESP+0xc]
0x4f099c 7423             JZ 0x4f09c1
0x4f099e e8d5a60000       CALL 0x4fb078
0x4f09a3 84c0             TEST AL, AL
0x4f09a5 741a             JZ 0x4f09c1
0x4f09a7 ff               DB 0xff

************************************************************************
Hook mode: Usermode
Hook type: Inline/Trampoline
Process: 1616 (taskhost.exe)
Victim module: USER32.dll (0x76f40000 - 0x77009000)
Function: USER32.dll!SetCapture at 0x76f76932
Hook address: 0x4ed909
Hooking module: <unknown>

Disassembly(0):
0x76f76932 e9d26f5789       JMP 0x4ed909
0x76f76937 ba0003fe7f       MOV EDX, 0x7ffe0300
0x76f7693c ff12             CALL DWORD [EDX]
0x76f7693e c20400           RET 0x4
0x76f76941 90               NOP
0x76f76942 90               NOP
0x76f76943 90               NOP
0x76f76944 90               NOP
0x76f76945 90               NOP
0x76f76946 b8               DB 0xb8
0x76f76947 b211             MOV DL, 0x11
0x76f76949 00               DB 0x0

Disassembly(1):
0x4ed909 f605e836500004   TEST BYTE [0x5036e8], 0x4
0x4ed910 53               PUSH EBX
0x4ed911 56               PUSH ESI
0x4ed912 57               PUSH EDI
0x4ed913 7445             JZ 0x4ed95a
0x4ed915 e85ed70000       CALL 0x4fb078
0x4ed91a 84c0             TEST AL, AL
0x4ed91c 743c             JZ 0x4ed95a
0x4ed91e 8b               DB 0x8b
0x4ed91f 5c               POP ESP
0x4ed920 24               DB 0x24

************************************************************************
Hook mode: Usermode
Hook type: Inline/Trampoline
Process: 1616 (taskhost.exe)
Victim module: USER32.dll (0x76f40000 - 0x77009000)
Function: USER32.dll!SetCursorPos at 0x76f8c1b0
Hook address: 0x4ed8cc
Hooking module: <unknown>

Disassembly(0):
0x76f8c1b0 e917175689       JMP 0x4ed8cc
0x76f8c1b5 6a74             PUSH 0x74
0x76f8c1b7 ff750c           PUSH DWORD [EBP+0xc]
0x76f8c1ba ff7508           PUSH DWORD [EBP+0x8]
0x76f8c1bd e80a1afcff       CALL 0x76f4dbcc
0x76f8c1c2 5d               POP EBP
0x76f8c1c3 c20800           RET 0x8
0x76f8c1c6 90               NOP
0x76f8c1c7 90               NOP

Disassembly(1):
0x4ed8cc f605e836500004   TEST BYTE [0x5036e8], 0x4
0x4ed8d3 742e             JZ 0x4ed903
0x4ed8d5 e89ed70000       CALL 0x4fb078
0x4ed8da 84c0             TEST AL, AL
0x4ed8dc 7425             JZ 0x4ed903
0x4ed8de a1b8235000       MOV EAX, [0x5023b8]
0x4ed8e3 8b               DB 0x8b

************************************************************************
Hook mode: Usermode
Hook type: Inline/Trampoline
Process: 1616 (taskhost.exe)
Victim module: USER32.dll (0x76f40000 - 0x77009000)
Function: USER32.dll!SwitchDesktop at 0x76f4476b
Hook address: 0x4e53ae
Hooking module: <unknown>

Disassembly(0):
0x76f4476b e93e0c5a89       JMP 0x4e53ae
0x76f44770 6a00             PUSH 0x0
0x76f44772 ff7508           PUSH DWORD [EBP+0x8]
0x76f44775 e8a2020000       CALL 0x76f44a1c
0x76f4477a 5d               POP EBP
0x76f4477b c20400           RET 0x4
0x76f4477e 33c0             XOR EAX, EAX
0x76f44780 e9               DB 0xe9
0x76f44781 3a               DB 0x3a
0x76f44782 73               DB 0x73

Disassembly(1):
0x4e53ae f605e836500004   TEST BYTE [0x5036e8], 0x4
0x4e53b5 740f             JZ 0x4e53c6
0x4e53b7 e8bc5c0100       CALL 0x4fb078
0x4e53bc 84c0             TEST AL, AL
0x4e53be 7406             JZ 0x4e53c6
0x4e53c0 33c0             XOR EAX, EAX
0x4e53c2 40               INC EAX
0x4e53c3 c20400           RET 0x4

************************************************************************
Hook mode: Usermode
Hook type: Inline/Trampoline
Process: 1616 (taskhost.exe)
Victim module: USER32.dll (0x76f40000 - 0x77009000)
Function: USER32.dll!TranslateMessage at 0x76f564c7
Hook address: 0x4ef91f
Hooking module: <unknown>

Disassembly(0):
0x76f564c7 e953945989       JMP 0x4ef91f
0x76f564cc 56               PUSH ESI
0x76f564cd 8b7508           MOV ESI, [EBP+0x8]
0x76f564d0 b8e5000000       MOV EAX, 0xe5
0x76f564d5 66394608         CMP [ESI+0x8], AX
0x76f564d9 0f84e4dc0200     JZ 0x76f841c3

Disassembly(1):
0x4ef91f 55               PUSH EBP
0x4ef920 8bec             MOV EBP, ESP
0x4ef922 83e4f8           AND ESP, -0x8
0x4ef925 81ec74030000     SUB ESP, 0x374
0x4ef92b 53               PUSH EBX
0x4ef92c 8b5d08           MOV EBX, [EBP+0x8]
0x4ef92f 56               PUSH ESI
0x4ef930 57               PUSH EDI
0x4ef931 85db             TEST EBX, EBX
0x4ef933 0f               DB 0xf
0x4ef934 843c01           TEST [ECX+EAX], BH

************************************************************************
Hook mode: Usermode
Hook type: Inline/Trampoline
Process: 1616 (taskhost.exe)
Victim module: WS2_32.dll (0x75ad0000 - 0x75b05000)
Function: WS2_32.dll!WSASend at 0x75ad4406
Hook address: 0x4eff16
Hooking module: <unknown>

Disassembly(0):
0x75ad4406 e90bbba18a       JMP 0x4eff16
0x75ad440b 51               PUSH ECX
0x75ad440c 51               PUSH ECX
0x75ad440d 813d4870af75292ead75 CMP DWORD [0x75af7048], 0x75ad2e29
0x75ad4417 56               PUSH ESI
0x75ad4418 0f85ca010000     JNZ 0x75ad45e8

Disassembly(1):
0x4eff16 55               PUSH EBP
0x4eff17 8bec             MOV EBP, ESP
0x4eff19 83e4f8           AND ESP, -0x8
0x4eff1c 56               PUSH ESI
0x4eff1d 57               PUSH EDI
0x4eff1e e855b10000       CALL 0x4fb078
0x4eff23 8b750c           MOV ESI, [EBP+0xc]
0x4eff26 84c0             TEST AL, AL
0x4eff28 7419             JZ 0x4eff43
0x4eff2a 837d1000         CMP DWORD [EBP+0x10], 0x0

************************************************************************
Hook mode: Usermode
Hook type: Inline/Trampoline
Process: 1616 (taskhost.exe)
Victim module: WS2_32.dll (0x75ad0000 - 0x75b05000)
Function: WS2_32.dll!closesocket at 0x75ad3918
Hook address: 0x4efebd
Hooking module: <unknown>

Disassembly(0):
0x75ad3918 e9a0c5a18a       JMP 0x4efebd
0x75ad391d 51               PUSH ECX
0x75ad391e 53               PUSH EBX
0x75ad391f 56               PUSH ESI
0x75ad3920 be292ead75       MOV ESI, 0x75ad2e29
0x75ad3925 33db             XOR EBX, EBX
0x75ad3927 57               PUSH EDI
0x75ad3928 39354870af75     CMP [0x75af7048], ESI
0x75ad392e 0f               DB 0xf
0x75ad392f 85               DB 0x85

Disassembly(1):
0x4efebd e8b6b10000       CALL 0x4fb078
0x4efec2 84c0             TEST AL, AL
0x4efec4 7429             JZ 0x4efeef
0x4efec6 56               PUSH ESI
0x4efec7 be68275000       MOV ESI, 0x502768
0x4efecc 56               PUSH ESI
0x4efecd ff154c124e00     CALL DWORD [0x4e124c]
0x4efed3 ff               DB 0xff
0x4efed4 74               DB 0x74

************************************************************************
Hook mode: Usermode
Hook type: Inline/Trampoline
Process: 1616 (taskhost.exe)
Victim module: WS2_32.dll (0x75ad0000 - 0x75b05000)
Function: WS2_32.dll!send at 0x75ad6f01
Hook address: 0x4efef5
Hooking module: <unknown>

Disassembly(0):
0x75ad6f01 e9ef8fa18a       JMP 0x4efef5
0x75ad6f06 83ec10           SUB ESP, 0x10
0x75ad6f09 56               PUSH ESI
0x75ad6f0a 57               PUSH EDI
0x75ad6f0b 33ff             XOR EDI, EDI
0x75ad6f0d 813d4870af75292ead75 CMP DWORD [0x75af7048], 0x75ad2e29
0x75ad6f17 757b             JNZ 0x75ad6f94

Disassembly(1):
0x4efef5 55               PUSH EBP
0x4efef6 8bec             MOV EBP, ESP
0x4efef8 e87bb10000       CALL 0x4fb078
0x4efefd 84c0             TEST AL, AL
0x4efeff 740e             JZ 0x4eff0f
0x4eff01 ff7508           PUSH DWORD [EBP+0x8]
0x4eff04 8b4510           MOV EAX, [EBP+0x10]
0x4eff07 8b4d0c           MOV ECX, [EBP+0xc]
0x4eff0a e8               DB 0xe8
0x4eff0b 35               DB 0x35
0x4eff0c fd               STD

************************************************************************
Hook mode: Usermode
Hook type: Inline/Trampoline
Process: 1616 (taskhost.exe)
Victim module: CRYPT32.dll (0x754d0000 - 0x755ed000)
Function: CRYPT32.dll!PFXImportCertStore at 0x75560ddc
Hook address: 0x4fc8ed
Hooking module: <unknown>

Disassembly(0):
0x75560ddc e90cbbf98a       JMP 0x4fc8ed
0x75560de1 81ec84000000     SUB ESP, 0x84
0x75560de7 a108535875       MOV EAX, [0x75585308]
0x75560dec 33c5             XOR EAX, EBP
0x75560dee 8945fc           MOV [EBP-0x4], EAX
0x75560df1 53               PUSH EBX
0x75560df2 8b               DB 0x8b
0x75560df3 5d               POP EBP

Disassembly(1):
0x4fc8ed 55               PUSH EBP
0x4fc8ee 8bec             MOV EBP, ESP
0x4fc8f0 83e4f8           AND ESP, -0x8
0x4fc8f3 81ecfc020000     SUB ESP, 0x2fc
0x4fc8f9 53               PUSH EBX
0x4fc8fa 8b5d08           MOV EBX, [EBP+0x8]
0x4fc8fd 56               PUSH ESI
0x4fc8fe 57               PUSH EDI
0x4fc8ff ff7510           PUSH DWORD [EBP+0x10]
0x4fc902 ff750c           PUSH DWORD [EBP+0xc]

************************************************************************
Hook mode: Usermode
Hook type: Inline/Trampoline
Process: 1616 (taskhost.exe)
Victim module: WININET.dll (0x760b0000 - 0x761a5000)
Function: WININET.dll!HttpQueryInfoA at 0x760ca33e
Hook address: 0x4fa4ad
Hooking module: <unknown>

Disassembly(0):
0x760ca33e e96a01438a       JMP 0x4fa4ad
0x760ca343 83ec6c           SUB ESP, 0x6c
0x760ca346 a1a0931676       MOV EAX, [0x761693a0]
0x760ca34b 33c5             XOR EAX, EBP
0x760ca34d 8945fc           MOV [EBP-0x4], EAX
0x760ca350 8b4510           MOV EAX, [EBP+0x10]
0x760ca353 8945d8           MOV [EBP-0x28], EAX

Disassembly(1):
0x4fa4ad 55               PUSH EBP
0x4fa4ae 8bec             MOV EBP, ESP
0x4fa4b0 e8c30b0000       CALL 0x4fb078
0x4fa4b5 84c0             TEST AL, AL
0x4fa4b7 7441             JZ 0x4fa4fa
0x4fa4b9 56               PUSH ESI
0x4fa4ba 57               PUSH EDI
0x4fa4bb bfb0355000       MOV EDI, 0x5035b0
0x4fa4c0 57               PUSH EDI
0x4fa4c1 ff               DB 0xff
0x4fa4c2 15               DB 0x15
0x4fa4c3 4c               DEC ESP
0x4fa4c4 12               DB 0x12

************************************************************************
Hook mode: Usermode
Hook type: Inline/Trampoline
Process: 1616 (taskhost.exe)
Victim module: WININET.dll (0x760b0000 - 0x761a5000)
Function: WININET.dll!HttpSendRequestA at 0x761418f8
Hook address: 0x4fa229
Hooking module: <unknown>

Disassembly(0):
0x761418f8 e92c893b8a       JMP 0x4fa229
0x761418fd 83ec38           SUB ESP, 0x38
0x76141900 56               PUSH ESI
0x76141901 6a38             PUSH 0x38
0x76141903 8d45c8           LEA EAX, [EBP-0x38]
0x76141906 6a00             PUSH 0x0
0x76141908 50               PUSH EAX
0x76141909 e80d00f7ff       CALL 0x760b191b
0x7614190e 83               DB 0x83
0x7614190f c4               DB 0xc4

Disassembly(1):
0x4fa229 55               PUSH EBP
0x4fa22a 8bec             MOV EBP, ESP
0x4fa22c e8470e0000       CALL 0x4fb078
0x4fa231 84c0             TEST AL, AL
0x4fa233 743d             JZ 0x4fa272
0x4fa235 837d1000         CMP DWORD [EBP+0x10], 0x0
0x4fa239 7422             JZ 0x4fa25d
0x4fa23b 837d0c00         CMP DWORD [EBP+0xc], 0x0
0x4fa23f 741c             JZ 0x4fa25d

************************************************************************
Hook mode: Usermode
Hook type: Inline/Trampoline
Process: 1616 (taskhost.exe)
Victim module: WININET.dll (0x760b0000 - 0x761a5000)
Function: WININET.dll!HttpSendRequestExA at 0x76141812
Hook address: 0x4fa319
Hooking module: <unknown>

Disassembly(0):
0x76141812 e9028b3b8a       JMP 0x4fa319
0x76141817 83ec40           SUB ESP, 0x40
0x7614181a 53               PUSH EBX
0x7614181b 56               PUSH ESI
0x7614181c 57               PUSH EDI
0x7614181d 6a38             PUSH 0x38
0x7614181f 33f6             XOR ESI, ESI
0x76141821 8d45c0           LEA EAX, [EBP-0x40]
0x76141824 56               PUSH ESI
0x76141825 50               PUSH EAX
0x76141826 33ff             XOR EDI, EDI
0x76141828 33db             XOR EBX, EBX

Disassembly(1):
0x4fa319 55               PUSH EBP
0x4fa31a 8bec             MOV EBP, ESP
0x4fa31c 83e4f8           AND ESP, -0x8
0x4fa31f 83ec2c           SUB ESP, 0x2c
0x4fa322 56               PUSH ESI
0x4fa323 e8500d0000       CALL 0x4fb078
0x4fa328 84c0             TEST AL, AL
0x4fa32a 746c             JZ 0x4fa398
0x4fa32c 33f6             XOR ESI, ESI
0x4fa32e 6a28             PUSH 0x28
0x4fa330 8d               DB 0x8d

************************************************************************
Hook mode: Usermode
Hook type: Inline/Trampoline
Process: 1616 (taskhost.exe)
Victim module: WININET.dll (0x760b0000 - 0x761a5000)
Function: WININET.dll!HttpSendRequestExW at 0x760e4a3d
Hook address: 0x4fa27d
Hooking module: <unknown>

Disassembly(0):
0x760e4a3d e93b58418a       JMP 0x4fa27d
0x760e4a42 83ec4c           SUB ESP, 0x4c
0x760e4a45 53               PUSH EBX
0x760e4a46 57               PUSH EDI
0x760e4a47 33ff             XOR EDI, EDI
0x760e4a49 6a38             PUSH 0x38
0x760e4a4b 8d45b4           LEA EAX, [EBP-0x4c]
0x760e4a4e 57               PUSH EDI
0x760e4a4f 50               PUSH EAX
0x760e4a50 897dfc           MOV [EBP-0x4], EDI
0x760e4a53 89               DB 0x89
0x760e4a54 7d               DB 0x7d

Disassembly(1):
0x4fa27d 55               PUSH EBP
0x4fa27e 8bec             MOV EBP, ESP
0x4fa280 83e4f8           AND ESP, -0x8
0x4fa283 83ec2c           SUB ESP, 0x2c
0x4fa286 56               PUSH ESI
0x4fa287 e8ec0d0000       CALL 0x4fb078
0x4fa28c 84c0             TEST AL, AL
0x4fa28e 746c             JZ 0x4fa2fc
0x4fa290 33f6             XOR ESI, ESI
0x4fa292 6a28             PUSH 0x28
0x4fa294 8d               DB 0x8d

************************************************************************
Hook mode: Usermode
Hook type: Inline/Trampoline
Process: 1616 (taskhost.exe)
Victim module: WININET.dll (0x760b0000 - 0x761a5000)
Function: WININET.dll!HttpSendRequestW at 0x760dba12
Hook address: 0x4fa1d5
Hooking module: <unknown>

Disassembly(0):
0x760dba12 e9bee7418a       JMP 0x4fa1d5
0x760dba17 83ec40           SUB ESP, 0x40
0x760dba1a 53               PUSH EBX
0x760dba1b 56               PUSH ESI
0x760dba1c 57               PUSH EDI
0x760dba1d 33f6             XOR ESI, ESI
0x760dba1f 6a38             PUSH 0x38
0x760dba21 8d45c0           LEA EAX, [EBP-0x40]
0x760dba24 56               PUSH ESI
0x760dba25 50               PUSH EAX
0x760dba26 33ff             XOR EDI, EDI
0x760dba28 33db             XOR EBX, EBX

Disassembly(1):
0x4fa1d5 55               PUSH EBP
0x4fa1d6 8bec             MOV EBP, ESP
0x4fa1d8 e89b0e0000       CALL 0x4fb078
0x4fa1dd 84c0             TEST AL, AL
0x4fa1df 743d             JZ 0x4fa21e
0x4fa1e1 837d1000         CMP DWORD [EBP+0x10], 0x0
0x4fa1e5 7422             JZ 0x4fa209
0x4fa1e7 837d0c00         CMP DWORD [EBP+0xc], 0x0
0x4fa1eb 741c             JZ 0x4fa209

************************************************************************
Hook mode: Usermode
Hook type: Inline/Trampoline
Process: 1616 (taskhost.exe)
Victim module: WININET.dll (0x760b0000 - 0x761a5000)
Function: WININET.dll!InternetCloseHandle at 0x760cab49
Hook address: 0x4fa3b5
Hooking module: <unknown>

Disassembly(0):
0x760cab49 e967f8428a       JMP 0x4fa3b5
0x760cab4e 83ec38           SUB ESP, 0x38
0x760cab51 56               PUSH ESI
0x760cab52 6a38             PUSH 0x38
0x760cab54 8d45c8           LEA EAX, [EBP-0x38]
0x760cab57 6a00             PUSH 0x0
0x760cab59 50               PUSH EAX
0x760cab5a e8bc6dfeff       CALL 0x760b191b
0x760cab5f 83               DB 0x83
0x760cab60 c4               DB 0xc4

Disassembly(1):
0x4fa3b5 53               PUSH EBX
0x4fa3b6 56               PUSH ESI
0x4fa3b7 8b74240c         MOV ESI, [ESP+0xc]
0x4fa3bb 56               PUSH ESI
0x4fa3bc ff1500154e00     CALL DWORD [0x4e1500]
0x4fa3c2 8bd8             MOV EBX, EAX
0x4fa3c4 e8af0c0000       CALL 0x4fb078
0x4fa3c9 84c0             TEST AL, AL
0x4fa3cb 7424             JZ 0x4fa3f1

************************************************************************
Hook mode: Usermode
Hook type: Inline/Trampoline
Process: 1616 (taskhost.exe)
Victim module: WININET.dll (0x760b0000 - 0x761a5000)
Function: WININET.dll!InternetQueryDataAvailable at 0x760d5e5d
Hook address: 0x4fa481
Hooking module: <unknown>

Disassembly(0):
0x760d5e5d e91f46428a       JMP 0x4fa481
0x760d5e62 83ec64           SUB ESP, 0x64
0x760d5e65 a1a0931676       MOV EAX, [0x761693a0]
0x760d5e6a 33c5             XOR EAX, EBP
0x760d5e6c 8945fc           MOV [EBP-0x4], EAX
0x760d5e6f 8b450c           MOV EAX, [EBP+0xc]
0x760d5e72 53               PUSH EBX
0x760d5e73 8b               DB 0x8b
0x760d5e74 5d               POP EBP

Disassembly(1):
0x4fa481 55               PUSH EBP
0x4fa482 8bec             MOV EBP, ESP
0x4fa484 e8ef0b0000       CALL 0x4fb078
0x4fa489 84c0             TEST AL, AL
0x4fa48b 7415             JZ 0x4fa4a2
0x4fa48d ff750c           PUSH DWORD [EBP+0xc]
0x4fa490 8d4508           LEA EAX, [EBP+0x8]
0x4fa493 6a00             PUSH 0x0
0x4fa495 6a00             PUSH 0x0
0x4fa497 50               PUSH EAX
0x4fa498 e8               DB 0xe8

************************************************************************
Hook mode: Usermode
Hook type: Inline/Trampoline
Process: 1616 (taskhost.exe)
Victim module: WININET.dll (0x760b0000 - 0x761a5000)
Function: WININET.dll!InternetReadFile at 0x760cb406
Hook address: 0x4fa3f8
Hooking module: <unknown>

Disassembly(0):
0x760cb406 e9edef428a       JMP 0x4fa3f8
0x760cb40b 83ec38           SUB ESP, 0x38
0x760cb40e 56               PUSH ESI
0x760cb40f 6a38             PUSH 0x38
0x760cb411 8d45c8           LEA EAX, [EBP-0x38]
0x760cb414 6a00             PUSH 0x0
0x760cb416 50               PUSH EAX
0x760cb417 e8ff64feff       CALL 0x760b191b
0x760cb41c 83               DB 0x83
0x760cb41d c4               DB 0xc4

Disassembly(1):
0x4fa3f8 55               PUSH EBP
0x4fa3f9 8bec             MOV EBP, ESP
0x4fa3fb e8780c0000       CALL 0x4fb078
0x4fa400 84c0             TEST AL, AL
0x4fa402 7428             JZ 0x4fa42c
0x4fa404 33c0             XOR EAX, EAX
0x4fa406 39450c           CMP [EBP+0xc], EAX
0x4fa409 7421             JZ 0x4fa42c
0x4fa40b 394510           CMP [EBP+0x10], EAX
0x4fa40e 761c             JBE 0x4fa42c

************************************************************************
Hook mode: Usermode
Hook type: Inline/Trampoline
Process: 1616 (taskhost.exe)
Victim module: WININET.dll (0x760b0000 - 0x761a5000)
Function: WININET.dll!InternetReadFileExA at 0x760fae46
Hook address: 0x4fa437
Hooking module: <unknown>

Disassembly(0):
0x760fae46 e9ecf53f8a       JMP 0x4fa437
0x760fae4b 83ec78           SUB ESP, 0x78
0x760fae4e a1a0931676       MOV EAX, [0x761693a0]
0x760fae53 33c5             XOR EAX, EBP
0x760fae55 8945fc           MOV [EBP-0x4], EAX
0x760fae58 8b4508           MOV EAX, [EBP+0x8]
0x760fae5b 53               PUSH EBX
0x760fae5c 56               PUSH ESI
0x760fae5d 8b               DB 0x8b

Disassembly(1):
0x4fa437 55               PUSH EBP
0x4fa438 8bec             MOV EBP, ESP
0x4fa43a 56               PUSH ESI
0x4fa43b e8380c0000       CALL 0x4fb078
0x4fa440 8b750c           MOV ESI, [EBP+0xc]
0x4fa443 84c0             TEST AL, AL
0x4fa445 7425             JZ 0x4fa46c
0x4fa447 85f6             TEST ESI, ESI
0x4fa449 7421             JZ 0x4fa46c
0x4fa44b 8b5614           MOV EDX, [ESI+0x14]
0x4fa44e 85               DB 0x85

************************************************************************
Hook mode: Usermode
Hook type: Inline/Trampoline
Process: 2060 (dwm.exe)
Victim module: ntdll.dll (0x771a0000 - 0x772dc000)
Function: ntdll.dll!LdrLoadDll at 0x772022b8
Hook address: 0x125a6e
Hooking module: <unknown>

Disassembly(0):
0x772022b8 e9b137f288       JMP 0x125a6e
0x772022bd 51               PUSH ECX
0x772022be 51               PUSH ECX
0x772022bf a158751f77       MOV EAX, [0x771f7558]
0x772022c4 53               PUSH EBX
0x772022c5 56               PUSH ESI
0x772022c6 8b7508           MOV ESI, [EBP+0x8]
0x772022c9 83c801           OR EAX, 0x1
0x772022cc 57               PUSH EDI
0x772022cd bb               DB 0xbb
0x772022ce a2               DB 0xa2
0x772022cf 7e               DB 0x7e

Disassembly(1):
0x125a6e 55               PUSH EBP
0x125a6f 8bec             MOV EBP, ESP
0x125a71 e802560100       CALL 0x13b078
0x125a76 84c0             TEST AL, AL
0x125a78 7507             JNZ 0x125a81
0x125a7a 5d               POP EBP
0x125a7b ff2520371400     JMP DWORD [0x143720]
0x125a81 53               PUSH EBX
0x125a82 56               PUSH ESI
0x125a83 8b7514           MOV ESI, [EBP+0x14]

************************************************************************
Hook mode: Usermode
Hook type: Inline/Trampoline
Process: 2060 (dwm.exe)
Victim module: ntdll.dll (0x771a0000 - 0x772dc000)
Function: ntdll.dll!NtCreateUserProcess at 0x771e5778
Hook address: 0x125945
Hooking module: <unknown>

Disassembly(0):
0x771e5778 e9c801f488       JMP 0x125945
0x771e577d ba0003fe7f       MOV EDX, 0x7ffe0300
0x771e5782 ff12             CALL DWORD [EDX]
0x771e5784 c22c00           RET 0x2c
0x771e5787 90               NOP
0x771e5788 b85e000000       MOV EAX, 0x5e
0x771e578d ba               DB 0xba
0x771e578e 0003             ADD [EBX], AL

Disassembly(1):
0x125945 55               PUSH EBP
0x125946 8bec             MOV EBP, ESP
0x125948 81eccc020000     SUB ESP, 0x2cc
0x12594e 53               PUSH EBX
0x12594f ff7530           PUSH DWORD [EBP+0x30]
0x125952 8b5d08           MOV EBX, [EBP+0x8]
0x125955 ff752c           PUSH DWORD [EBP+0x2c]
0x125958 ff7528           PUSH DWORD [EBP+0x28]
0x12595b ff               DB 0xff
0x12595c 75               DB 0x75

************************************************************************
Hook mode: Usermode
Hook type: Inline/Trampoline
Process: 2060 (dwm.exe)
Victim module: ntdll.dll (0x771a0000 - 0x772dc000)
Function: ntdll.dll!ZwCreateUserProcess at 0x771e5778
Hook address: 0x125945
Hooking module: <unknown>

Disassembly(0):
0x771e5778 e9c801f488       JMP 0x125945
0x771e577d ba0003fe7f       MOV EDX, 0x7ffe0300
0x771e5782 ff12             CALL DWORD [EDX]
0x771e5784 c22c00           RET 0x2c
0x771e5787 90               NOP
0x771e5788 b85e000000       MOV EAX, 0x5e
0x771e578d ba               DB 0xba
0x771e578e 0003             ADD [EBX], AL

Disassembly(1):
0x125945 55               PUSH EBP
0x125946 8bec             MOV EBP, ESP
0x125948 81eccc020000     SUB ESP, 0x2cc
0x12594e 53               PUSH EBX
0x12594f ff7530           PUSH DWORD [EBP+0x30]
0x125952 8b5d08           MOV EBX, [EBP+0x8]
0x125955 ff752c           PUSH DWORD [EBP+0x2c]
0x125958 ff7528           PUSH DWORD [EBP+0x28]
0x12595b ff               DB 0xff
0x12595c 75               DB 0x75

************************************************************************
Hook mode: Usermode
Hook type: Inline/Trampoline
Process: 2060 (dwm.exe)
Victim module: kernel32.dll (0x75960000 - 0x75a34000)
Function: kernel32.dll!GetFileAttributesExW at 0x759a273d
Hook address: 0x125b0e
Hooking module: <unknown>

Disassembly(0):
0x759a273d e9cc33788a       JMP 0x125b0e
0x759a2742 5d               POP EBP
0x759a2743 eb05             JMP 0x759a274a
0x759a2745 90               NOP
0x759a2746 90               NOP
0x759a2747 90               NOP
0x759a2748 90               NOP
0x759a2749 90               NOP
0x759a274a ff25341a9675     JMP DWORD [0x75961a34]
0x759a2750 33c9             XOR ECX, ECX
0x759a2752 39               DB 0x39
0x759a2753 8d               DB 0x8d
0x759a2754 60               PUSHA

Disassembly(1):
0x125b0e 55               PUSH EBP
0x125b0f 8bec             MOV EBP, ESP
0x125b11 817d0c6063f188   CMP DWORD [EBP+0xc], 0x88f16360
0x125b18 57               PUSH EDI
0x125b19 7551             JNZ 0x125b6c
0x125b1b 837d0800         CMP DWORD [EBP+0x8], 0x0
0x125b1f 744b             JZ 0x125b6c
0x125b21 e852550100       CALL 0x13b078

************************************************************************
Hook mode: Usermode
Hook type: Inline/Trampoline
Process: 2060 (dwm.exe)
Victim module: USER32.dll (0x76f40000 - 0x77009000)
Function: USER32.dll!BeginPaint at 0x76f55d14
Hook address: 0x130807
Hooking module: <unknown>

Disassembly(0):
0x76f55d14 e9eeaa1d89       JMP 0x130807
0x76f55d19 ba0003fe7f       MOV EDX, 0x7ffe0300
0x76f55d1e ff12             CALL DWORD [EDX]
0x76f55d20 c20800           RET 0x8
0x76f55d23 837d0c00         CMP DWORD [EBP+0xc], 0x0
0x76f55d27 0f               DB 0xf
0x76f55d28 853e             TEST [ESI], EDI
0x76f55d2a a801             TEST AL, 0x1

Disassembly(1):
0x130807 f605e836140004   TEST BYTE [0x1436e8], 0x4
0x13080e 56               PUSH ESI
0x13080f 8b74240c         MOV ESI, [ESP+0xc]
0x130813 57               PUSH EDI
0x130814 8b7c240c         MOV EDI, [ESP+0xc]
0x130818 7450             JZ 0x13086a
0x13081a e859a80000       CALL 0x13b078

************************************************************************
Hook mode: Usermode
Hook type: Inline/Trampoline
Process: 2060 (dwm.exe)
Victim module: USER32.dll (0x76f40000 - 0x77009000)
Function: USER32.dll!CallWindowProcA at 0x76f72bd3
Hook address: 0x12564b
Hooking module: <unknown>

Disassembly(0):
0x76f72bd3 e9732a1b89       JMP 0x12564b
0x76f72bd8 6a01             PUSH 0x1
0x76f72bda ff7518           PUSH DWORD [EBP+0x18]
0x76f72bdd ff7514           PUSH DWORD [EBP+0x14]
0x76f72be0 ff7510           PUSH DWORD [EBP+0x10]
0x76f72be3 ff750c           PUSH DWORD [EBP+0xc]
0x76f72be6 ff7508           PUSH DWORD [EBP+0x8]
0x76f72be9 e8               DB 0xe8
0x76f72bea f2               DB 0xf2

Disassembly(1):
0x12564b 55               PUSH EBP
0x12564c 8bec             MOV EBP, ESP
0x12564e f605e836140004   TEST BYTE [0x1436e8], 0x4
0x125655 56               PUSH ESI
0x125656 8b7510           MOV ESI, [EBP+0x10]
0x125659 7421             JZ 0x12567c
0x12565b e8185a0100       CALL 0x13b078
0x125660 84c0             TEST AL, AL
0x125662 74               DB 0x74

************************************************************************
Hook mode: Usermode
Hook type: Inline/Trampoline
Process: 2060 (dwm.exe)
Victim module: USER32.dll (0x76f40000 - 0x77009000)
Function: USER32.dll!CallWindowProcW at 0x76f51b3c
Hook address: 0x125602
Hooking module: <unknown>

Disassembly(0):
0x76f51b3c e9c13a1d89       JMP 0x125602
0x76f51b41 6a00             PUSH 0x0
0x76f51b43 ff7518           PUSH DWORD [EBP+0x18]
0x76f51b46 ff7514           PUSH DWORD [EBP+0x14]
0x76f51b49 ff7510           PUSH DWORD [EBP+0x10]
0x76f51b4c ff750c           PUSH DWORD [EBP+0xc]
0x76f51b4f ff7508           PUSH DWORD [EBP+0x8]
0x76f51b52 e8               DB 0xe8
0x76f51b53 89               DB 0x89

Disassembly(1):
0x125602 55               PUSH EBP
0x125603 8bec             MOV EBP, ESP
0x125605 f605e836140004   TEST BYTE [0x1436e8], 0x4
0x12560c 56               PUSH ESI
0x12560d 8b7510           MOV ESI, [EBP+0x10]
0x125610 7421             JZ 0x125633
0x125612 e8615a0100       CALL 0x13b078
0x125617 84c0             TEST AL, AL
0x125619 74               DB 0x74

************************************************************************
Hook mode: Usermode
Hook type: Inline/Trampoline
Process: 2060 (dwm.exe)
Victim module: USER32.dll (0x76f40000 - 0x77009000)
Function: USER32.dll!DefDlgProcA at 0x76f671e4
Hook address: 0x12549e
Hooking module: <unknown>

Disassembly(0):
0x76f671e4 e9b5e21b89       JMP 0x12549e
0x76f671e9 8b4d08           MOV ECX, [EBP+0x8]
0x76f671ec e81f53ffff       CALL 0x76f5c510
0x76f671f1 85c0             TEST EAX, EAX
0x76f671f3 7411             JZ 0x76f67206
0x76f671f5 6a01             PUSH 0x1
0x76f671f7 ff7514           PUSH DWORD [EBP+0x14]
0x76f671fa ff               DB 0xff
0x76f671fb 75               DB 0x75

Disassembly(1):
0x12549e 55               PUSH EBP
0x12549f 8bec             MOV EBP, ESP
0x1254a1 f605e836140004   TEST BYTE [0x1436e8], 0x4
0x1254a8 56               PUSH ESI
0x1254a9 8b750c           MOV ESI, [EBP+0xc]
0x1254ac 7421             JZ 0x1254cf
0x1254ae e8c55b0100       CALL 0x13b078
0x1254b3 84c0             TEST AL, AL
0x1254b5 74               DB 0x74

************************************************************************
Hook mode: Usermode
Hook type: Inline/Trampoline
Process: 2060 (dwm.exe)
Victim module: USER32.dll (0x76f40000 - 0x77009000)
Function: USER32.dll!DefDlgProcW at 0x76f75bc1
Hook address: 0x125458
Hooking module: <unknown>

Disassembly(0):
0x76f75bc1 e992f81a89       JMP 0x125458
0x76f75bc6 8b4d08           MOV ECX, [EBP+0x8]
0x76f75bc9 e84269feff       CALL 0x76f5c510
0x76f75bce 85c0             TEST EAX, EAX
0x76f75bd0 7411             JZ 0x76f75be3
0x76f75bd2 6a00             PUSH 0x0
0x76f75bd4 ff7514           PUSH DWORD [EBP+0x14]
0x76f75bd7 ff               DB 0xff
0x76f75bd8 75               DB 0x75

Disassembly(1):
0x125458 55               PUSH EBP
0x125459 8bec             MOV EBP, ESP
0x12545b f605e836140004   TEST BYTE [0x1436e8], 0x4
0x125462 56               PUSH ESI
0x125463 8b750c           MOV ESI, [EBP+0xc]
0x125466 7421             JZ 0x125489
0x125468 e80b5c0100       CALL 0x13b078
0x12546d 84c0             TEST AL, AL
0x12546f 74               DB 0x74

************************************************************************
Hook mode: Usermode
Hook type: Inline/Trampoline
Process: 2060 (dwm.exe)
Victim module: USER32.dll (0x76f40000 - 0x77009000)
Function: USER32.dll!DefFrameProcA at 0x76f725b7
Hook address: 0x12552d
Hooking module: <unknown>

Disassembly(0):
0x76f725b7 e9712f1b89       JMP 0x12552d
0x76f725bc 6a01             PUSH 0x1
0x76f725be ff7518           PUSH DWORD [EBP+0x18]
0x76f725c1 ff7514           PUSH DWORD [EBP+0x14]
0x76f725c4 ff7510           PUSH DWORD [EBP+0x10]
0x76f725c7 ff750c           PUSH DWORD [EBP+0xc]
0x76f725ca ff7508           PUSH DWORD [EBP+0x8]
0x76f725cd e8               DB 0xe8
0x76f725ce b9               DB 0xb9

Disassembly(1):
0x12552d 55               PUSH EBP
0x12552e 8bec             MOV EBP, ESP
0x125530 f605e836140004   TEST BYTE [0x1436e8], 0x4
0x125537 56               PUSH ESI
0x125538 8b7510           MOV ESI, [EBP+0x10]
0x12553b 7421             JZ 0x12555e
0x12553d e8365b0100       CALL 0x13b078
0x125542 84c0             TEST AL, AL
0x125544 74               DB 0x74

************************************************************************
Hook mode: Usermode
Hook type: Inline/Trampoline
Process: 2060 (dwm.exe)
Victim module: USER32.dll (0x76f40000 - 0x77009000)
Function: USER32.dll!DefFrameProcW at 0x76f7152b
Hook address: 0x1254e4
Hooking module: <unknown>

Disassembly(0):
0x76f7152b e9b43f1b89       JMP 0x1254e4
0x76f71530 6a00             PUSH 0x0
0x76f71532 ff7518           PUSH DWORD [EBP+0x18]
0x76f71535 ff7514           PUSH DWORD [EBP+0x14]
0x76f71538 ff7510           PUSH DWORD [EBP+0x10]
0x76f7153b ff750c           PUSH DWORD [EBP+0xc]
0x76f7153e ff7508           PUSH DWORD [EBP+0x8]
0x76f71541 e8               DB 0xe8
0x76f71542 45               INC EBP

Disassembly(1):
0x1254e4 55               PUSH EBP
0x1254e5 8bec             MOV EBP, ESP
0x1254e7 f605e836140004   TEST BYTE [0x1436e8], 0x4
0x1254ee 56               PUSH ESI
0x1254ef 8b7510           MOV ESI, [EBP+0x10]
0x1254f2 7421             JZ 0x125515
0x1254f4 e87f5b0100       CALL 0x13b078
0x1254f9 84c0             TEST AL, AL
0x1254fb 74               DB 0x74

************************************************************************
Hook mode: Usermode
Hook type: Inline/Trampoline
Process: 2060 (dwm.exe)
Victim module: USER32.dll (0x76f40000 - 0x77009000)
Function: USER32.dll!DefMDIChildProcA at 0x76f725db
Hook address: 0x1255bc
Hooking module: <unknown>

Disassembly(0):
0x76f725db e9dc2f1b89       JMP 0x1255bc
0x76f725e0 6a01             PUSH 0x1
0x76f725e2 ff7514           PUSH DWORD [EBP+0x14]
0x76f725e5 ff7510           PUSH DWORD [EBP+0x10]
0x76f725e8 ff750c           PUSH DWORD [EBP+0xc]
0x76f725eb ff7508           PUSH DWORD [EBP+0x8]
0x76f725ee e892f6ffff       CALL 0x76f71c85

Disassembly(1):
0x1255bc 55               PUSH EBP
0x1255bd 8bec             MOV EBP, ESP
0x1255bf f605e836140004   TEST BYTE [0x1436e8], 0x4
0x1255c6 56               PUSH ESI
0x1255c7 8b750c           MOV ESI, [EBP+0xc]
0x1255ca 7421             JZ 0x1255ed
0x1255cc e8a75a0100       CALL 0x13b078
0x1255d1 84c0             TEST AL, AL
0x1255d3 74               DB 0x74

************************************************************************
Hook mode: Usermode
Hook type: Inline/Trampoline
Process: 2060 (dwm.exe)
Victim module: USER32.dll (0x76f40000 - 0x77009000)
Function: USER32.dll!DefMDIChildProcW at 0x76f7150a
Hook address: 0x125576
Hooking module: <unknown>

Disassembly(0):
0x76f7150a e967401b89       JMP 0x125576
0x76f7150f 6a00             PUSH 0x0
0x76f71511 ff7514           PUSH DWORD [EBP+0x14]
0x76f71514 ff7510           PUSH DWORD [EBP+0x10]
0x76f71517 ff750c           PUSH DWORD [EBP+0xc]
0x76f7151a ff7508           PUSH DWORD [EBP+0x8]
0x76f7151d e863070000       CALL 0x76f71c85

Disassembly(1):
0x125576 55               PUSH EBP
0x125577 8bec             MOV EBP, ESP
0x125579 f605e836140004   TEST BYTE [0x1436e8], 0x4
0x125580 56               PUSH ESI
0x125581 8b750c           MOV ESI, [EBP+0xc]
0x125584 7421             JZ 0x1255a7
0x125586 e8ed5a0100       CALL 0x13b078
0x12558b 84c0             TEST AL, AL
0x12558d 74               DB 0x74

************************************************************************
Hook mode: Usermode
Hook type: Inline/Trampoline
Process: 2060 (dwm.exe)
Victim module: USER32.dll (0x76f40000 - 0x77009000)
Function: USER32.dll!DefWindowProcA at 0x76f4bb1c
Hook address: 0x125412
Hooking module: <unknown>

Disassembly(0):
0x76f4bb1c e9f1981d89       JMP 0x125412
0x76f4bb21 f4               HLT
0x76f4bb22 76e8             JBE 0x76f4bb0c
0x76f4bb24 f8               CLC
0x76f4bb25 0801             OR [ECX], AL
0x76f4bb27 00e8             ADD AL, CH
0x76f4bb29 830901           OR DWORD [ECX], 0x1
0x76f4bb2c 00833dd89afa     ADD [EBX-0x56527c3], AL
0x76f4bb32 7600             JBE 0x76f4bb34

Disassembly(1):
0x125412 55               PUSH EBP
0x125413 8bec             MOV EBP, ESP
0x125415 f605e836140004   TEST BYTE [0x1436e8], 0x4
0x12541c 56               PUSH ESI
0x12541d 8b750c           MOV ESI, [EBP+0xc]
0x125420 7421             JZ 0x125443
0x125422 e8515c0100       CALL 0x13b078
0x125427 84c0             TEST AL, AL
0x125429 74               DB 0x74

************************************************************************
Hook mode: Usermode
Hook type: Inline/Trampoline
Process: 2060 (dwm.exe)
Victim module: USER32.dll (0x76f40000 - 0x77009000)
Function: USER32.dll!DefWindowProcW at 0x76f5507d
Hook address: 0x1253cc
Hooking module: <unknown>

Disassembly(0):
0x76f5507d e94a031d89       JMP 0x1253cc
0x76f55082 f5               CMC
0x76f55083 76e8             JBE 0x76f5506d
0x76f55085 97               XCHG EDI, EAX
0x76f55086 7300             JAE 0x76f55088
0x76f55088 00e8             ADD AL, CH
0x76f5508a 22740000         AND DH, [EAX+EAX+0x0]
0x76f5508e 833dd89afa7600   CMP DWORD [0x76fa9ad8], 0x0

Disassembly(1):
0x1253cc 55               PUSH EBP
0x1253cd 8bec             MOV EBP, ESP
0x1253cf f605e836140004   TEST BYTE [0x1436e8], 0x4
0x1253d6 56               PUSH ESI
0x1253d7 8b750c           MOV ESI, [EBP+0xc]
0x1253da 7421             JZ 0x1253fd
0x1253dc e8975c0100       CALL 0x13b078
0x1253e1 84c0             TEST AL, AL
0x1253e3 74               DB 0x74

************************************************************************
Hook mode: Usermode
Hook type: Inline/Trampoline
Process: 2060 (dwm.exe)
Victim module: USER32.dll (0x76f40000 - 0x77009000)
Function: USER32.dll!EndPaint at 0x76f55d42
Hook address: 0x130877
Hooking module: <unknown>

Disassembly(0):
0x76f55d42 e930ab1d89       JMP 0x130877
0x76f55d47 ba0003fe7f       MOV EDX, 0x7ffe0300
0x76f55d4c ff12             CALL DWORD [EDX]
0x76f55d4e c20800           RET 0x8
0x76f55d51 90               NOP
0x76f55d52 90               NOP
0x76f55d53 90               NOP
0x76f55d54 90               NOP
0x76f55d55 90               NOP
0x76f55d56 8bff             MOV EDI, EDI
0x76f55d58 55               PUSH EBP
0x76f55d59 8b               DB 0x8b

Disassembly(1):
0x130877 f605e836140004   TEST BYTE [0x1436e8], 0x4
0x13087e 56               PUSH ESI
0x13087f 8b742408         MOV ESI, [ESP+0x8]
0x130883 7423             JZ 0x1308a8
0x130885 e8eea70000       CALL 0x13b078
0x13088a 84c0             TEST AL, AL
0x13088c 741a             JZ 0x1308a8
0x13088e ff               DB 0xff

************************************************************************
Hook mode: Usermode
Hook type: Inline/Trampoline
Process: 2060 (dwm.exe)
Victim module: USER32.dll (0x76f40000 - 0x77009000)
Function: USER32.dll!GetCapture at 0x76f49dc7
Hook address: 0x12d9b3
Hooking module: <unknown>

Disassembly(0):
0x76f49dc7 e9e73b1e89       JMP 0x12d9b3
0x76f49dcc 83b8080b000000   CMP DWORD [EAX+0xb08], 0x0
0x76f49dd3 0f8582c80200     JNZ 0x76f7665b
0x76f49dd9 33c0             XOR EAX, EAX
0x76f49ddb c3               RET
0x76f49ddc 3b5d0c           CMP EBX, [EBP+0xc]

Disassembly(1):
0x12d9b3 f605e836140004   TEST BYTE [0x1436e8], 0x4
0x12d9ba 56               PUSH ESI
0x12d9bb 744b             JZ 0x12da08
0x12d9bd e8b6d60000       CALL 0x13b078
0x12d9c2 84c0             TEST AL, AL
0x12d9c4 7442             JZ 0x12da08
0x12d9c6 ff               DB 0xff
0x12d9c7 15               DB 0x15
0x12d9c8 7412             JZ 0x12d9dc
0x12d9ca 12               DB 0x12

************************************************************************
Hook mode: Usermode
Hook type: Inline/Trampoline
Process: 2060 (dwm.exe)
Victim module: USER32.dll (0x76f40000 - 0x77009000)
Function: USER32.dll!GetClipboardData at 0x76f62ba7
Hook address: 0x12fa85
Hooking module: <unknown>

Disassembly(0):
0x76f62ba7 e9d9ce1c89       JMP 0x12fa85
0x76f62bac 83ec2c           SUB ESP, 0x2c
0x76f62baf 57               PUSH EDI
0x76f62bb0 8d45d4           LEA EAX, [EBP-0x2c]
0x76f62bb3 50               PUSH EAX
0x76f62bb4 ff7508           PUSH DWORD [EBP+0x8]
0x76f62bb7 e8d7ffffff       CALL 0x76f62b93
0x76f62bbc 33ff             XOR EDI, EDI
0x76f62bbe 89               DB 0x89

Disassembly(1):
0x12fa85 55               PUSH EBP
0x12fa86 8bec             MOV EBP, ESP
0x12fa88 56               PUSH ESI
0x12fa89 8b7508           MOV ESI, [EBP+0x8]
0x12fa8c 57               PUSH EDI
0x12fa8d 56               PUSH ESI
0x12fa8e ff1544141200     CALL DWORD [0x121444]
0x12fa94 8bf8             MOV EDI, EAX
0x12fa96 897d08           MOV [EBP+0x8], EDI
0x12fa99 e8               DB 0xe8
0x12fa9a da               DB 0xda
0x12fa9b b500             MOV CH, 0x0

************************************************************************
Hook mode: Usermode
Hook type: Inline/Trampoline
Process: 2060 (dwm.exe)
Victim module: USER32.dll (0x76f40000 - 0x77009000)
Function: USER32.dll!GetCursorPos at 0x76f4a4b3
Hook address: 0x12d885
Hooking module: <unknown>

Disassembly(0):
0x76f4a4b3 e9cd331e89       JMP 0x12d885
0x76f4a4b8 6a69             PUSH 0x69
0x76f4a4ba 6a01             PUSH 0x1
0x76f4a4bc ff7508           PUSH DWORD [EBP+0x8]
0x76f4a4bf e808370000       CALL 0x76f4dbcc
0x76f4a4c4 5d               POP EBP
0x76f4a4c5 c20400           RET 0x4
0x76f4a4c8 90               NOP
0x76f4a4c9 90               NOP
0x76f4a4ca 90               NOP

Disassembly(1):
0x12d885 f605e836140004   TEST BYTE [0x1436e8], 0x4
0x12d88c 7438             JZ 0x12d8c6
0x12d88e e8e5d70000       CALL 0x13b078
0x12d893 84c0             TEST AL, AL
0x12d895 742f             JZ 0x12d8c6
0x12d897 8b442404         MOV EAX, [ESP+0x4]
0x12d89b 85c0             TEST EAX, EAX

************************************************************************
Hook mode: Usermode
Hook type: Inline/Trampoline
Process: 2060 (dwm.exe)
Victim module: USER32.dll (0x76f40000 - 0x77009000)
Function: USER32.dll!GetDC at 0x76f5544c
Hook address: 0x130912
Hooking module: <unknown>

Disassembly(0):
0x76f5544c e9c1b41d89       JMP 0x130912
0x76f55451 ba0003fe7f       MOV EDX, 0x7ffe0300
0x76f55456 ff12             CALL DWORD [EDX]
0x76f55458 c20400           RET 0x4
0x76f5545b 90               NOP
0x76f5545c 90               NOP
0x76f5545d 90               NOP
0x76f5545e 90               NOP
0x76f5545f 90               NOP
0x76f55460 8bff             MOV EDI, EDI
0x76f55462 55               PUSH EBP
0x76f55463 8b               DB 0x8b

Disassembly(1):
0x130912 f605e836140004   TEST BYTE [0x1436e8], 0x4
0x130919 56               PUSH ESI
0x13091a 8b742408         MOV ESI, [ESP+0x8]
0x13091e 7426             JZ 0x130946
0x130920 e853a70000       CALL 0x13b078
0x130925 84c0             TEST AL, AL
0x130927 741d             JZ 0x130946
0x130929 ff               DB 0xff

************************************************************************
Hook mode: Usermode
Hook type: Inline/Trampoline
Process: 2060 (dwm.exe)
Victim module: USER32.dll (0x76f40000 - 0x77009000)
Function: USER32.dll!GetDCEx at 0x76f52d57
Hook address: 0x1308b7
Hooking module: <unknown>

Disassembly(0):
0x76f52d57 e95bdb1d89       JMP 0x1308b7
0x76f52d5c ba0003fe7f       MOV EDX, 0x7ffe0300
0x76f52d61 ff12             CALL DWORD [EDX]
0x76f52d63 c20c00           RET 0xc
0x76f52d66 85ff             TEST EDI, EDI
0x76f52d68 0f84200c0000     JZ 0x76f5398e
0x76f52d6e 85               DB 0x85

Disassembly(1):
0x1308b7 55               PUSH EBP
0x1308b8 8bec             MOV EBP, ESP
0x1308ba f605e836140004   TEST BYTE [0x1436e8], 0x4
0x1308c1 56               PUSH ESI
0x1308c2 57               PUSH EDI
0x1308c3 8b7d08           MOV EDI, [EBP+0x8]
0x1308c6 7437             JZ 0x1308ff
0x1308c8 e8aba70000       CALL 0x13b078
0x1308cd 84c0             TEST AL, AL

************************************************************************
Hook mode: Usermode
Hook type: Inline/Trampoline
Process: 2060 (dwm.exe)
Victim module: USER32.dll (0x76f40000 - 0x77009000)
Function: USER32.dll!GetMessageA at 0x76f51899
Hook address: 0x12da7a
Hooking module: <unknown>

Disassembly(0):
0x76f51899 e9dcc11d89       JMP 0x12da7a
0x76f5189e 8b5510           MOV EDX, [EBP+0x10]
0x76f518a1 8b4d14           MOV ECX, [EBP+0x14]
0x76f518a4 56               PUSH ESI
0x76f518a5 8bf2             MOV ESI, EDX
0x76f518a7 0bf1             OR ESI, ECX
0x76f518a9 b80000feff       MOV EAX, 0xfffe0000
0x76f518ae 85f0             TEST EAX, ESI
0x76f518b0 0f               DB 0xf

Disassembly(1):
0x12da7a 56               PUSH ESI
0x12da7b 8b742408         MOV ESI, [ESP+0x8]
0x12da7f 57               PUSH EDI
0x12da80 ff742418         PUSH DWORD [ESP+0x18]
0x12da84 ff742418         PUSH DWORD [ESP+0x18]
0x12da88 ff742418         PUSH DWORD [ESP+0x18]
0x12da8c 56               PUSH ESI
0x12da8d ff               DB 0xff
0x12da8e 15               DB 0x15
0x12da8f 98               CWDE
0x12da90 1412             ADC AL, 0x12

************************************************************************
Hook mode: Usermode
Hook type: Inline/Trampoline
Process: 2060 (dwm.exe)
Victim module: USER32.dll (0x76f40000 - 0x77009000)
Function: USER32.dll!GetMessagePos at 0x76f76703
Hook address: 0x12d853
Hooking module: <unknown>

Disassembly(0):
0x76f76703 e94b711b89       JMP 0x12d853
0x76f76708 fe               DB 0xfe
0x76f76709 ffc3             INC EBX
0x76f7670b 83650c00         AND DWORD [EBP+0xc], 0x0
0x76f7670f e9a1f0fdff       JMP 0x76f557b5
0x76f76714 8b430c           MOV EAX, [EBX+0xc]
0x76f76717 3bc2             CMP EAX, EDX
0x76f76719 0f               DB 0xf
0x76f7671a 85               DB 0x85

Disassembly(1):
0x12d853 f605e836140004   TEST BYTE [0x1436e8], 0x4
0x12d85a 7423             JZ 0x12d87f
0x12d85c e817d80000       CALL 0x13b078
0x12d861 84c0             TEST AL, AL
0x12d863 741a             JZ 0x12d87f
0x12d865 8b0db8231400     MOV ECX, [0x1423b8]

************************************************************************
Hook mode: Usermode
Hook type: Inline/Trampoline
Process: 2060 (dwm.exe)
Victim module: USER32.dll (0x76f40000 - 0x77009000)
Function: USER32.dll!GetMessageW at 0x76f5cde8
Hook address: 0x12da52
Hooking module: <unknown>

Disassembly(0):
0x76f5cde8 e9650c1d89       JMP 0x12da52
0x76f5cded 8b5510           MOV EDX, [EBP+0x10]
0x76f5cdf0 8b4d14           MOV ECX, [EBP+0x14]
0x76f5cdf3 0bd1             OR EDX, ECX
0x76f5cdf5 b80000feff       MOV EAX, 0xfffe0000
0x76f5cdfa 85d0             TEST EAX, EDX
0x76f5cdfc 0f               DB 0xf
0x76f5cdfd 857801           TEST [EAX+0x1], EDI

Disassembly(1):
0x12da52 56               PUSH ESI
0x12da53 8b742408         MOV ESI, [ESP+0x8]
0x12da57 57               PUSH EDI
0x12da58 ff742418         PUSH DWORD [ESP+0x18]
0x12da5c ff742418         PUSH DWORD [ESP+0x18]
0x12da60 ff742418         PUSH DWORD [ESP+0x18]
0x12da64 56               PUSH ESI
0x12da65 ff               DB 0xff
0x12da66 15               DB 0x15
0x12da67 101412           ADC [EDX+EDX], DL

************************************************************************
Hook mode: Usermode
Hook type: Inline/Trampoline
Process: 2060 (dwm.exe)
Victim module: USER32.dll (0x76f40000 - 0x77009000)
Function: USER32.dll!GetUpdateRect at 0x76f4a575
Hook address: 0x1309d0
Hooking module: <unknown>

Disassembly(0):
0x76f4a575 e956641e89       JMP 0x1309d0
0x76f4a57a 8b4d08           MOV ECX, [EBP+0x8]
0x76f4a57d e88e1f0100       CALL 0x76f5c510
0x76f4a582 85c0             TEST EAX, EAX
0x76f4a584 7423             JZ 0x76f4a5a9
0x76f4a586 83786800         CMP DWORD [EAX+0x68], 0x0
0x76f4a58a 7535             JNZ 0x76f4a5c1
0x76f4a58c f6               DB 0xf6

Disassembly(1):
0x1309d0 55               PUSH EBP
0x1309d1 8bec             MOV EBP, ESP
0x1309d3 f605e836140004   TEST BYTE [0x1436e8], 0x4
0x1309da 53               PUSH EBX
0x1309db 8b5d08           MOV EBX, [EBP+0x8]
0x1309de 56               PUSH ESI
0x1309df 746f             JZ 0x130a50
0x1309e1 e892a60000       CALL 0x13b078
0x1309e6 84c0             TEST AL, AL

************************************************************************
Hook mode: Usermode
Hook type: Inline/Trampoline
Process: 2060 (dwm.exe)
Victim module: USER32.dll (0x76f40000 - 0x77009000)
Function: USER32.dll!GetUpdateRgn at 0x76f71c07
Hook address: 0x130a63
Hooking module: <unknown>

Disassembly(0):
0x76f71c07 e957ee1b89       JMP 0x130a63
0x76f71c0c 56               PUSH ESI
0x76f71c0d 33f6             XOR ESI, ESI
0x76f71c0f 39750c           CMP [EBP+0xc], ESI
0x76f71c12 0f8415710000     JZ 0x76f78d2d
0x76f71c18 8b4d08           MOV ECX, [EBP+0x8]
0x76f71c1b e8               DB 0xe8
0x76f71c1c f0a8fe           TEST AL, 0xfe

Disassembly(1):
0x130a63 55               PUSH EBP
0x130a64 8bec             MOV EBP, ESP
0x130a66 f605e836140004   TEST BYTE [0x1436e8], 0x4
0x130a6d 53               PUSH EBX
0x130a6e 8b5d08           MOV EBX, [EBP+0x8]
0x130a71 56               PUSH ESI
0x130a72 7470             JZ 0x130ae4
0x130a74 e8ffa50000       CALL 0x13b078
0x130a79 84c0             TEST AL, AL

************************************************************************
Hook mode: Usermode
Hook type: Inline/Trampoline
Process: 2060 (dwm.exe)
Victim module: USER32.dll (0x76f40000 - 0x77009000)
Function: USER32.dll!GetWindowDC at 0x76f54ab7
Hook address: 0x130951
Hooking module: <unknown>

Disassembly(0):
0x76f54ab7 e995be1d89       JMP 0x130951
0x76f54abc ba0003fe7f       MOV EDX, 0x7ffe0300
0x76f54ac1 ff12             CALL DWORD [EDX]
0x76f54ac3 c20400           RET 0x4
0x76f54ac6 80faff           CMP DL, 0xff
0x76f54ac9 0f85cc080000     JNZ 0x76f5539b

Disassembly(1):
0x130951 f605e836140004   TEST BYTE [0x1436e8], 0x4
0x130958 56               PUSH ESI
0x130959 8b742408         MOV ESI, [ESP+0x8]
0x13095d 7426             JZ 0x130985
0x13095f e814a70000       CALL 0x13b078
0x130964 84c0             TEST AL, AL
0x130966 741d             JZ 0x130985
0x130968 ff               DB 0xff

************************************************************************
Hook mode: Usermode
Hook type: Inline/Trampoline
Process: 2060 (dwm.exe)
Victim module: USER32.dll (0x76f40000 - 0x77009000)
Function: USER32.dll!OpenInputDesktop at 0x76f45c39
Hook address: 0x12535e
Hooking module: <unknown>

Disassembly(0):
0x76f45c39 e920f71d89       JMP 0x12535e
0x76f45c3e ba0003fe7f       MOV EDX, 0x7ffe0300
0x76f45c43 ff12             CALL DWORD [EDX]
0x76f45c45 c20c00           RET 0xc
0x76f45c48 0000             ADD [EAX], AL
0x76f45c4a 895de0           MOV [EBP-0x20], EBX
0x76f45c4d e9               DB 0xe9
0x76f45c4e 1e               PUSH DS
0x76f45c4f 3d               DB 0x3d
0x76f45c50 00               DB 0x0

Disassembly(1):
0x12535e 55               PUSH EBP
0x12535f 8bec             MOV EBP, ESP
0x125361 83ec64           SUB ESP, 0x64
0x125364 f605e836140004   TEST BYTE [0x1436e8], 0x4
0x12536b 742e             JZ 0x12539b
0x12536d e8065d0100       CALL 0x13b078
0x125372 84c0             TEST AL, AL
0x125374 7425             JZ 0x12539b

************************************************************************
Hook mode: Usermode
Hook type: Inline/Trampoline
Process: 2060 (dwm.exe)
Victim module: USER32.dll (0x76f40000 - 0x77009000)
Function: USER32.dll!PeekMessageA at 0x76f519a5
Hook address: 0x12dacd
Hooking module: <unknown>

Disassembly(0):
0x76f519a5 e923c11d89       JMP 0x12dacd
0x76f519aa 53               PUSH EBX
0x76f519ab 56               PUSH ESI
0x76f519ac 648b3518000000   MOV ESI, [FS:0x18]
0x76f519b3 33c9             XOR ECX, ECX
0x76f519b5 81c6cc060000     ADD ESI, 0x6cc
0x76f519bb 57               PUSH EDI
0x76f519bc 39               DB 0x39

Disassembly(1):
0x12dacd 55               PUSH EBP
0x12dace 8bec             MOV EBP, ESP
0x12dad0 56               PUSH ESI
0x12dad1 8b7508           MOV ESI, [EBP+0x8]
0x12dad4 57               PUSH EDI
0x12dad5 ff7518           PUSH DWORD [EBP+0x18]
0x12dad8 ff7514           PUSH DWORD [EBP+0x14]
0x12dadb ff7510           PUSH DWORD [EBP+0x10]
0x12dade ff750c           PUSH DWORD [EBP+0xc]
0x12dae1 56               PUSH ESI
0x12dae2 ff               DB 0xff
0x12dae3 15               DB 0x15
0x12dae4 54               PUSH ESP

************************************************************************
Hook mode: Usermode
Hook type: Inline/Trampoline
Process: 2060 (dwm.exe)
Victim module: USER32.dll (0x76f40000 - 0x77009000)
Function: USER32.dll!PeekMessageW at 0x76f5634a
Hook address: 0x12daa2
Hooking module: <unknown>

Disassembly(0):
0x76f5634a e953771d89       JMP 0x12daa2
0x76f5634f 53               PUSH EBX
0x76f56350 56               PUSH ESI
0x76f56351 648b3518000000   MOV ESI, [FS:0x18]
0x76f56358 33c9             XOR ECX, ECX
0x76f5635a 81c6cc060000     ADD ESI, 0x6cc
0x76f56360 57               PUSH EDI
0x76f56361 39               DB 0x39

Disassembly(1):
0x12daa2 55               PUSH EBP
0x12daa3 8bec             MOV EBP, ESP
0x12daa5 56               PUSH ESI
0x12daa6 8b7508           MOV ESI, [EBP+0x8]
0x12daa9 57               PUSH EDI
0x12daaa ff7518           PUSH DWORD [EBP+0x18]
0x12daad ff7514           PUSH DWORD [EBP+0x14]
0x12dab0 ff7510           PUSH DWORD [EBP+0x10]
0x12dab3 ff750c           PUSH DWORD [EBP+0xc]
0x12dab6 56               PUSH ESI
0x12dab7 ff               DB 0xff
0x12dab8 15               DB 0x15
0x12dab9 50               PUSH EAX

************************************************************************
Hook mode: Usermode
Hook type: Inline/Trampoline
Process: 2060 (dwm.exe)
Victim module: USER32.dll (0x76f40000 - 0x77009000)
Function: USER32.dll!RegisterClassA at 0x76f4bc6a
Hook address: 0x12571d
Hooking module: <unknown>

Disassembly(0):
0x76f4bc6a e9ae9a1d89       JMP 0x12571d
0x76f4bc6f 83ec30           SUB ESP, 0x30
0x76f4bc72 8b4508           MOV EAX, [EBP+0x8]
0x76f4bc75 56               PUSH ESI
0x76f4bc76 57               PUSH EDI
0x76f4bc77 6a09             PUSH 0x9
0x76f4bc79 59               POP ECX
0x76f4bc7a 8d7004           LEA ESI, [EAX+0x4]
0x76f4bc7d 8b00             MOV EAX, [EAX]
0x76f4bc7f 6a01             PUSH 0x1
0x76f4bc81 8d               DB 0x8d

Disassembly(1):
0x12571d 55               PUSH EBP
0x12571e 8bec             MOV EBP, ESP
0x125720 83ec28           SUB ESP, 0x28
0x125723 f605e836140004   TEST BYTE [0x1436e8], 0x4
0x12572a 56               PUSH ESI
0x12572b 8b7508           MOV ESI, [EBP+0x8]
0x12572e 742e             JZ 0x12575e
0x125730 e843590100       CALL 0x13b078

************************************************************************
Hook mode: Usermode
Hook type: Inline/Trampoline
Process: 2060 (dwm.exe)
Victim module: USER32.dll (0x76f40000 - 0x77009000)
Function: USER32.dll!RegisterClassExA at 0x76f46293
Hook address: 0x1257bc
Hooking module: <unknown>

Disassembly(0):
0x76f46293 e924f51d89       JMP 0x1257bc
0x76f46298 8b4508           MOV EAX, [EBP+0x8]
0x76f4629b 833830           CMP DWORD [EAX], 0x30
0x76f4629e 0f853e0a0400     JNZ 0x76f86ce2
0x76f462a4 6a01             PUSH 0x1
0x76f462a6 6880000000       PUSH DWORD 0x80

Disassembly(1):
0x1257bc 55               PUSH EBP
0x1257bd 8bec             MOV EBP, ESP
0x1257bf 83ec30           SUB ESP, 0x30
0x1257c2 f605e836140004   TEST BYTE [0x1436e8], 0x4
0x1257c9 56               PUSH ESI
0x1257ca 8b7508           MOV ESI, [EBP+0x8]
0x1257cd 7433             JZ 0x125802
0x1257cf e8a4580100       CALL 0x13b078

************************************************************************
Hook mode: Usermode
Hook type: Inline/Trampoline
Process: 2060 (dwm.exe)
Victim module: USER32.dll (0x76f40000 - 0x77009000)
Function: USER32.dll!RegisterClassExW at 0x76f50162
Hook address: 0x12576a
Hooking module: <unknown>

Disassembly(0):
0x76f50162 e903561d89       JMP 0x12576a
0x76f50167 8b4508           MOV EAX, [EBP+0x8]
0x76f5016a 833830           CMP DWORD [EAX], 0x30
0x76f5016d 0f85899e0200     JNZ 0x76f79ffc
0x76f50173 6a01             PUSH 0x1
0x76f50175 6880000000       PUSH DWORD 0x80

Disassembly(1):
0x12576a 55               PUSH EBP
0x12576b 8bec             MOV EBP, ESP
0x12576d 83ec30           SUB ESP, 0x30
0x125770 f605e836140004   TEST BYTE [0x1436e8], 0x4
0x125777 56               PUSH ESI
0x125778 8b7508           MOV ESI, [EBP+0x8]
0x12577b 7433             JZ 0x1257b0
0x12577d e8f6580100       CALL 0x13b078

************************************************************************
Hook mode: Usermode
Hook type: Inline/Trampoline
Process: 2060 (dwm.exe)
Victim module: USER32.dll (0x76f40000 - 0x77009000)
Function: USER32.dll!RegisterClassW at 0x76f4ed4a
Hook address: 0x1256d0
Hooking module: <unknown>

Disassembly(0):
0x76f4ed4a e981691d89       JMP 0x1256d0
0x76f4ed4f 83ec30           SUB ESP, 0x30
0x76f4ed52 8b4508           MOV EAX, [EBP+0x8]
0x76f4ed55 56               PUSH ESI
0x76f4ed56 57               PUSH EDI
0x76f4ed57 6a09             PUSH 0x9
0x76f4ed59 59               POP ECX
0x76f4ed5a 8d7004           LEA ESI, [EAX+0x4]
0x76f4ed5d 8b00             MOV EAX, [EAX]
0x76f4ed5f 6a01             PUSH 0x1
0x76f4ed61 8d               DB 0x8d

Disassembly(1):
0x1256d0 55               PUSH EBP
0x1256d1 8bec             MOV EBP, ESP
0x1256d3 83ec28           SUB ESP, 0x28
0x1256d6 f605e836140004   TEST BYTE [0x1436e8], 0x4
0x1256dd 56               PUSH ESI
0x1256de 8b7508           MOV ESI, [EBP+0x8]
0x1256e1 742e             JZ 0x125711
0x1256e3 e890590100       CALL 0x13b078

************************************************************************
Hook mode: Usermode
Hook type: Inline/Trampoline
Process: 2060 (dwm.exe)
Victim module: USER32.dll (0x76f40000 - 0x77009000)
Function: USER32.dll!ReleaseCapture at 0x76f769f2
Hook address: 0x12d963
Hooking module: <unknown>

Disassembly(0):
0x76f769f2 e96c6f1b89       JMP 0x12d963
0x76f769f7 fe               DB 0xfe
0x76f769f8 ffc3             INC EBX
0x76f769fa 90               NOP
0x76f769fb 90               NOP
0x76f769fc 90               NOP
0x76f769fd 90               NOP
0x76f769fe 90               NOP
0x76f769ff 8bff             MOV EDI, EDI
0x76f76a01 55               PUSH EBP
0x76f76a02 8bec             MOV EBP, ESP
0x76f76a04 6a30             PUSH 0x30
0x76f76a06 ff7508           PUSH DWORD [EBP+0x8]
0x76f76a09 e8               DB 0xe8

Disassembly(1):
0x12d963 f605e836140004   TEST BYTE [0x1436e8], 0x4
0x12d96a 7441             JZ 0x12d9ad
0x12d96c e807d70000       CALL 0x13b078
0x12d971 84c0             TEST AL, AL
0x12d973 7438             JZ 0x12d9ad
0x12d975 ff1574121200     CALL DWORD [0x121274]

************************************************************************
Hook mode: Usermode
Hook type: Inline/Trampoline
Process: 2060 (dwm.exe)
Victim module: USER32.dll (0x76f40000 - 0x77009000)
Function: USER32.dll!ReleaseDC at 0x76f55421
Hook address: 0x130990
Hooking module: <unknown>

Disassembly(0):
0x76f55421 e96ab51d89       JMP 0x130990
0x76f55426 837d0c00         CMP DWORD [EBP+0xc], 0x0
0x76f5542a 0f846b380200     JZ 0x76f78c9b
0x76f55430 ff750c           PUSH DWORD [EBP+0xc]
0x76f55433 ff152013f476     CALL DWORD [0x76f41320]

Disassembly(1):
0x130990 f605e836140004   TEST BYTE [0x1436e8], 0x4
0x130997 56               PUSH ESI
0x130998 8b74240c         MOV ESI, [ESP+0xc]
0x13099c 7423             JZ 0x1309c1
0x13099e e8d5a60000       CALL 0x13b078
0x1309a3 84c0             TEST AL, AL
0x1309a5 741a             JZ 0x1309c1
0x1309a7 ff               DB 0xff

************************************************************************
Hook mode: Usermode
Hook type: Inline/Trampoline
Process: 2060 (dwm.exe)
Victim module: USER32.dll (0x76f40000 - 0x77009000)
Function: USER32.dll!SetCapture at 0x76f76932
Hook address: 0x12d909
Hooking module: <unknown>

Disassembly(0):
0x76f76932 e9d26f1b89       JMP 0x12d909
0x76f76937 ba0003fe7f       MOV EDX, 0x7ffe0300
0x76f7693c ff12             CALL DWORD [EDX]
0x76f7693e c20400           RET 0x4
0x76f76941 90               NOP
0x76f76942 90               NOP
0x76f76943 90               NOP
0x76f76944 90               NOP
0x76f76945 90               NOP
0x76f76946 b8               DB 0xb8
0x76f76947 b211             MOV DL, 0x11
0x76f76949 00               DB 0x0

Disassembly(1):
0x12d909 f605e836140004   TEST BYTE [0x1436e8], 0x4
0x12d910 53               PUSH EBX
0x12d911 56               PUSH ESI
0x12d912 57               PUSH EDI
0x12d913 7445             JZ 0x12d95a
0x12d915 e85ed70000       CALL 0x13b078
0x12d91a 84c0             TEST AL, AL
0x12d91c 743c             JZ 0x12d95a
0x12d91e 8b               DB 0x8b
0x12d91f 5c               POP ESP
0x12d920 24               DB 0x24

************************************************************************
Hook mode: Usermode
Hook type: Inline/Trampoline
Process: 2060 (dwm.exe)
Victim module: USER32.dll (0x76f40000 - 0x77009000)
Function: USER32.dll!SetCursorPos at 0x76f8c1b0
Hook address: 0x12d8cc
Hooking module: <unknown>

Disassembly(0):
0x76f8c1b0 e917171a89       JMP 0x12d8cc
0x76f8c1b5 6a74             PUSH 0x74
0x76f8c1b7 ff750c           PUSH DWORD [EBP+0xc]
0x76f8c1ba ff7508           PUSH DWORD [EBP+0x8]
0x76f8c1bd e80a1afcff       CALL 0x76f4dbcc
0x76f8c1c2 5d               POP EBP
0x76f8c1c3 c20800           RET 0x8
0x76f8c1c6 90               NOP
0x76f8c1c7 90               NOP

Disassembly(1):
0x12d8cc f605e836140004   TEST BYTE [0x1436e8], 0x4
0x12d8d3 742e             JZ 0x12d903
0x12d8d5 e89ed70000       CALL 0x13b078
0x12d8da 84c0             TEST AL, AL
0x12d8dc 7425             JZ 0x12d903
0x12d8de a1b8231400       MOV EAX, [0x1423b8]
0x12d8e3 8b               DB 0x8b

************************************************************************
Hook mode: Usermode
Hook type: Inline/Trampoline
Process: 2060 (dwm.exe)
Victim module: USER32.dll (0x76f40000 - 0x77009000)
Function: USER32.dll!SwitchDesktop at 0x76f4476b
Hook address: 0x1253ae
Hooking module: <unknown>

Disassembly(0):
0x76f4476b e93e0c1e89       JMP 0x1253ae
0x76f44770 6a00             PUSH 0x0
0x76f44772 ff7508           PUSH DWORD [EBP+0x8]
0x76f44775 e8a2020000       CALL 0x76f44a1c
0x76f4477a 5d               POP EBP
0x76f4477b c20400           RET 0x4
0x76f4477e 33c0             XOR EAX, EAX
0x76f44780 e9               DB 0xe9
0x76f44781 3a               DB 0x3a
0x76f44782 73               DB 0x73

Disassembly(1):
0x1253ae f605e836140004   TEST BYTE [0x1436e8], 0x4
0x1253b5 740f             JZ 0x1253c6
0x1253b7 e8bc5c0100       CALL 0x13b078
0x1253bc 84c0             TEST AL, AL
0x1253be 7406             JZ 0x1253c6
0x1253c0 33c0             XOR EAX, EAX
0x1253c2 40               INC EAX
0x1253c3 c20400           RET 0x4

************************************************************************
Hook mode: Usermode
Hook type: Inline/Trampoline
Process: 2060 (dwm.exe)
Victim module: USER32.dll (0x76f40000 - 0x77009000)
Function: USER32.dll!TranslateMessage at 0x76f564c7
Hook address: 0x12f91f
Hooking module: <unknown>

Disassembly(0):
0x76f564c7 e953941d89       JMP 0x12f91f
0x76f564cc 56               PUSH ESI
0x76f564cd 8b7508           MOV ESI, [EBP+0x8]
0x76f564d0 b8e5000000       MOV EAX, 0xe5
0x76f564d5 66394608         CMP [ESI+0x8], AX
0x76f564d9 0f84e4dc0200     JZ 0x76f841c3

Disassembly(1):
0x12f91f 55               PUSH EBP
0x12f920 8bec             MOV EBP, ESP
0x12f922 83e4f8           AND ESP, -0x8
0x12f925 81ec74030000     SUB ESP, 0x374
0x12f92b 53               PUSH EBX
0x12f92c 8b5d08           MOV EBX, [EBP+0x8]
0x12f92f 56               PUSH ESI
0x12f930 57               PUSH EDI
0x12f931 85db             TEST EBX, EBX
0x12f933 0f               DB 0xf
0x12f934 843c01           TEST [ECX+EAX], BH

************************************************************************
Hook mode: Usermode
Hook type: Inline/Trampoline
Process: 2060 (dwm.exe)
Victim module: CRYPT32.dll (0x754d0000 - 0x755ed000)
Function: CRYPT32.dll!PFXImportCertStore at 0x75560ddc
Hook address: 0x13c8ed
Hooking module: <unknown>

Disassembly(0):
0x75560ddc e90cbbbd8a       JMP 0x13c8ed
0x75560de1 81ec84000000     SUB ESP, 0x84
0x75560de7 a108535875       MOV EAX, [0x75585308]
0x75560dec 33c5             XOR EAX, EBP
0x75560dee 8945fc           MOV [EBP-0x4], EAX
0x75560df1 53               PUSH EBX
0x75560df2 8b               DB 0x8b
0x75560df3 5d               POP EBP

Disassembly(1):
0x13c8ed 55               PUSH EBP
0x13c8ee 8bec             MOV EBP, ESP
0x13c8f0 83e4f8           AND ESP, -0x8
0x13c8f3 81ecfc020000     SUB ESP, 0x2fc
0x13c8f9 53               PUSH EBX
0x13c8fa 8b5d08           MOV EBX, [EBP+0x8]
0x13c8fd 56               PUSH ESI
0x13c8fe 57               PUSH EDI
0x13c8ff ff7510           PUSH DWORD [EBP+0x10]
0x13c902 ff750c           PUSH DWORD [EBP+0xc]

************************************************************************
Hook mode: Usermode
Hook type: Inline/Trampoline
Process: 2060 (dwm.exe)
Victim module: WS2_32.dll (0x75ad0000 - 0x75b05000)
Function: WS2_32.dll!WSASend at 0x75ad4406
Hook address: 0x12ff16
Hooking module: <unknown>

Disassembly(0):
0x75ad4406 e90bbb658a       JMP 0x12ff16
0x75ad440b 51               PUSH ECX
0x75ad440c 51               PUSH ECX
0x75ad440d 813d4870af75292ead75 CMP DWORD [0x75af7048], 0x75ad2e29
0x75ad4417 56               PUSH ESI
0x75ad4418 0f85ca010000     JNZ 0x75ad45e8

Disassembly(1):
0x12ff16 55               PUSH EBP
0x12ff17 8bec             MOV EBP, ESP
0x12ff19 83e4f8           AND ESP, -0x8
0x12ff1c 56               PUSH ESI
0x12ff1d 57               PUSH EDI
0x12ff1e e855b10000       CALL 0x13b078
0x12ff23 8b750c           MOV ESI, [EBP+0xc]
0x12ff26 84c0             TEST AL, AL
0x12ff28 7419             JZ 0x12ff43
0x12ff2a 837d1000         CMP DWORD [EBP+0x10], 0x0

************************************************************************
Hook mode: Usermode
Hook type: Inline/Trampoline
Process: 2060 (dwm.exe)
Victim module: WS2_32.dll (0x75ad0000 - 0x75b05000)
Function: WS2_32.dll!closesocket at 0x75ad3918
Hook address: 0x12febd
Hooking module: <unknown>

Disassembly(0):
0x75ad3918 e9a0c5658a       JMP 0x12febd
0x75ad391d 51               PUSH ECX
0x75ad391e 53               PUSH EBX
0x75ad391f 56               PUSH ESI
0x75ad3920 be292ead75       MOV ESI, 0x75ad2e29
0x75ad3925 33db             XOR EBX, EBX
0x75ad3927 57               PUSH EDI
0x75ad3928 39354870af75     CMP [0x75af7048], ESI
0x75ad392e 0f               DB 0xf
0x75ad392f 85               DB 0x85

Disassembly(1):
0x12febd e8b6b10000       CALL 0x13b078
0x12fec2 84c0             TEST AL, AL
0x12fec4 7429             JZ 0x12feef
0x12fec6 56               PUSH ESI
0x12fec7 be68271400       MOV ESI, 0x142768
0x12fecc 56               PUSH ESI
0x12fecd ff154c121200     CALL DWORD [0x12124c]
0x12fed3 ff               DB 0xff
0x12fed4 74               DB 0x74

************************************************************************
Hook mode: Usermode
Hook type: Inline/Trampoline
Process: 2060 (dwm.exe)
Victim module: WS2_32.dll (0x75ad0000 - 0x75b05000)
Function: WS2_32.dll!send at 0x75ad6f01
Hook address: 0x12fef5
Hooking module: <unknown>

Disassembly(0):
0x75ad6f01 e9ef8f658a       JMP 0x12fef5
0x75ad6f06 83ec10           SUB ESP, 0x10
0x75ad6f09 56               PUSH ESI
0x75ad6f0a 57               PUSH EDI
0x75ad6f0b 33ff             XOR EDI, EDI
0x75ad6f0d 813d4870af75292ead75 CMP DWORD [0x75af7048], 0x75ad2e29
0x75ad6f17 757b             JNZ 0x75ad6f94

Disassembly(1):
0x12fef5 55               PUSH EBP
0x12fef6 8bec             MOV EBP, ESP
0x12fef8 e87bb10000       CALL 0x13b078
0x12fefd 84c0             TEST AL, AL
0x12feff 740e             JZ 0x12ff0f
0x12ff01 ff7508           PUSH DWORD [EBP+0x8]
0x12ff04 8b4510           MOV EAX, [EBP+0x10]
0x12ff07 8b4d0c           MOV ECX, [EBP+0xc]
0x12ff0a e8               DB 0xe8
0x12ff0b 35               DB 0x35
0x12ff0c fd               STD

************************************************************************
Hook mode: Usermode
Hook type: Inline/Trampoline
Process: 2060 (dwm.exe)
Victim module: WININET.dll (0x760b0000 - 0x761a5000)
Function: WININET.dll!HttpQueryInfoA at 0x760ca33e
Hook address: 0x13a4ad
Hooking module: <unknown>

Disassembly(0):
0x760ca33e e96a01078a       JMP 0x13a4ad
0x760ca343 83ec6c           SUB ESP, 0x6c
0x760ca346 a1a0931676       MOV EAX, [0x761693a0]
0x760ca34b 33c5             XOR EAX, EBP
0x760ca34d 8945fc           MOV [EBP-0x4], EAX
0x760ca350 8b4510           MOV EAX, [EBP+0x10]
0x760ca353 8945d8           MOV [EBP-0x28], EAX

Disassembly(1):
0x13a4ad 55               PUSH EBP
0x13a4ae 8bec             MOV EBP, ESP
0x13a4b0 e8c30b0000       CALL 0x13b078
0x13a4b5 84c0             TEST AL, AL
0x13a4b7 7441             JZ 0x13a4fa
0x13a4b9 56               PUSH ESI
0x13a4ba 57               PUSH EDI
0x13a4bb bfb0351400       MOV EDI, 0x1435b0
0x13a4c0 57               PUSH EDI
0x13a4c1 ff               DB 0xff
0x13a4c2 15               DB 0x15
0x13a4c3 4c               DEC ESP
0x13a4c4 12               DB 0x12

************************************************************************
Hook mode: Usermode
Hook type: Inline/Trampoline
Process: 2060 (dwm.exe)
Victim module: WININET.dll (0x760b0000 - 0x761a5000)
Function: WININET.dll!HttpSendRequestA at 0x761418f8
Hook address: 0x13a229
Hooking module: <unknown>

Disassembly(0):
0x761418f8 e92c89ff89       JMP 0x13a229
0x761418fd 83ec38           SUB ESP, 0x38
0x76141900 56               PUSH ESI
0x76141901 6a38             PUSH 0x38
0x76141903 8d45c8           LEA EAX, [EBP-0x38]
0x76141906 6a00             PUSH 0x0
0x76141908 50               PUSH EAX
0x76141909 e80d00f7ff       CALL 0x760b191b
0x7614190e 83               DB 0x83
0x7614190f c4               DB 0xc4

Disassembly(1):
0x13a229 55               PUSH EBP
0x13a22a 8bec             MOV EBP, ESP
0x13a22c e8470e0000       CALL 0x13b078
0x13a231 84c0             TEST AL, AL
0x13a233 743d             JZ 0x13a272
0x13a235 837d1000         CMP DWORD [EBP+0x10], 0x0
0x13a239 7422             JZ 0x13a25d
0x13a23b 837d0c00         CMP DWORD [EBP+0xc], 0x0
0x13a23f 741c             JZ 0x13a25d

************************************************************************
Hook mode: Usermode
Hook type: Inline/Trampoline
Process: 2060 (dwm.exe)
Victim module: WININET.dll (0x760b0000 - 0x761a5000)
Function: WININET.dll!HttpSendRequestExA at 0x76141812
Hook address: 0x13a319
Hooking module: <unknown>

Disassembly(0):
0x76141812 e9028bff89       JMP 0x13a319
0x76141817 83ec40           SUB ESP, 0x40
0x7614181a 53               PUSH EBX
0x7614181b 56               PUSH ESI
0x7614181c 57               PUSH EDI
0x7614181d 6a38             PUSH 0x38
0x7614181f 33f6             XOR ESI, ESI
0x76141821 8d45c0           LEA EAX, [EBP-0x40]
0x76141824 56               PUSH ESI
0x76141825 50               PUSH EAX
0x76141826 33ff             XOR EDI, EDI
0x76141828 33db             XOR EBX, EBX

Disassembly(1):
0x13a319 55               PUSH EBP
0x13a31a 8bec             MOV EBP, ESP
0x13a31c 83e4f8           AND ESP, -0x8
0x13a31f 83ec2c           SUB ESP, 0x2c
0x13a322 56               PUSH ESI
0x13a323 e8500d0000       CALL 0x13b078
0x13a328 84c0             TEST AL, AL
0x13a32a 746c             JZ 0x13a398
0x13a32c 33f6             XOR ESI, ESI
0x13a32e 6a28             PUSH 0x28
0x13a330 8d               DB 0x8d

************************************************************************
Hook mode: Usermode
Hook type: Inline/Trampoline
Process: 2060 (dwm.exe)
Victim module: WININET.dll (0x760b0000 - 0x761a5000)
Function: WININET.dll!HttpSendRequestExW at 0x760e4a3d
Hook address: 0x13a27d
Hooking module: <unknown>

Disassembly(0):
0x760e4a3d e93b58058a       JMP 0x13a27d
0x760e4a42 83ec4c           SUB ESP, 0x4c
0x760e4a45 53               PUSH EBX
0x760e4a46 57               PUSH EDI
0x760e4a47 33ff             XOR EDI, EDI
0x760e4a49 6a38             PUSH 0x38
0x760e4a4b 8d45b4           LEA EAX, [EBP-0x4c]
0x760e4a4e 57               PUSH EDI
0x760e4a4f 50               PUSH EAX
0x760e4a50 897dfc           MOV [EBP-0x4], EDI
0x760e4a53 89               DB 0x89
0x760e4a54 7d               DB 0x7d

Disassembly(1):
0x13a27d 55               PUSH EBP
0x13a27e 8bec             MOV EBP, ESP
0x13a280 83e4f8           AND ESP, -0x8
0x13a283 83ec2c           SUB ESP, 0x2c
0x13a286 56               PUSH ESI
0x13a287 e8ec0d0000       CALL 0x13b078
0x13a28c 84c0             TEST AL, AL
0x13a28e 746c             JZ 0x13a2fc
0x13a290 33f6             XOR ESI, ESI
0x13a292 6a28             PUSH 0x28
0x13a294 8d               DB 0x8d

************************************************************************
Hook mode: Usermode
Hook type: Inline/Trampoline
Process: 2060 (dwm.exe)
Victim module: WININET.dll (0x760b0000 - 0x761a5000)
Function: WININET.dll!HttpSendRequestW at 0x760dba12
Hook address: 0x13a1d5
Hooking module: <unknown>

Disassembly(0):
0x760dba12 e9bee7058a       JMP 0x13a1d5
0x760dba17 83ec40           SUB ESP, 0x40
0x760dba1a 53               PUSH EBX
0x760dba1b 56               PUSH ESI
0x760dba1c 57               PUSH EDI
0x760dba1d 33f6             XOR ESI, ESI
0x760dba1f 6a38             PUSH 0x38
0x760dba21 8d45c0           LEA EAX, [EBP-0x40]
0x760dba24 56               PUSH ESI
0x760dba25 50               PUSH EAX
0x760dba26 33ff             XOR EDI, EDI
0x760dba28 33db             XOR EBX, EBX

Disassembly(1):
0x13a1d5 55               PUSH EBP
0x13a1d6 8bec             MOV EBP, ESP
0x13a1d8 e89b0e0000       CALL 0x13b078
0x13a1dd 84c0             TEST AL, AL
0x13a1df 743d             JZ 0x13a21e
0x13a1e1 837d1000         CMP DWORD [EBP+0x10], 0x0
0x13a1e5 7422             JZ 0x13a209
0x13a1e7 837d0c00         CMP DWORD [EBP+0xc], 0x0
0x13a1eb 741c             JZ 0x13a209

************************************************************************
Hook mode: Usermode
Hook type: Inline/Trampoline
Process: 2060 (dwm.exe)
Victim module: WININET.dll (0x760b0000 - 0x761a5000)
Function: WININET.dll!InternetCloseHandle at 0x760cab49
Hook address: 0x13a3b5
Hooking module: <unknown>

Disassembly(0):
0x760cab49 e967f8068a       JMP 0x13a3b5
0x760cab4e 83ec38           SUB ESP, 0x38
0x760cab51 56               PUSH ESI
0x760cab52 6a38             PUSH 0x38
0x760cab54 8d45c8           LEA EAX, [EBP-0x38]
0x760cab57 6a00             PUSH 0x0
0x760cab59 50               PUSH EAX
0x760cab5a e8bc6dfeff       CALL 0x760b191b
0x760cab5f 83               DB 0x83
0x760cab60 c4               DB 0xc4

Disassembly(1):
0x13a3b5 53               PUSH EBX
0x13a3b6 56               PUSH ESI
0x13a3b7 8b74240c         MOV ESI, [ESP+0xc]
0x13a3bb 56               PUSH ESI
0x13a3bc ff1500151200     CALL DWORD [0x121500]
0x13a3c2 8bd8             MOV EBX, EAX
0x13a3c4 e8af0c0000       CALL 0x13b078
0x13a3c9 84c0             TEST AL, AL
0x13a3cb 7424             JZ 0x13a3f1

************************************************************************
Hook mode: Usermode
Hook type: Inline/Trampoline
Process: 2060 (dwm.exe)
Victim module: WININET.dll (0x760b0000 - 0x761a5000)
Function: WININET.dll!InternetQueryDataAvailable at 0x760d5e5d
Hook address: 0x13a481
Hooking module: <unknown>

Disassembly(0):
0x760d5e5d e91f46068a       JMP 0x13a481
0x760d5e62 83ec64           SUB ESP, 0x64
0x760d5e65 a1a0931676       MOV EAX, [0x761693a0]
0x760d5e6a 33c5             XOR EAX, EBP
0x760d5e6c 8945fc           MOV [EBP-0x4], EAX
0x760d5e6f 8b450c           MOV EAX, [EBP+0xc]
0x760d5e72 53               PUSH EBX
0x760d5e73 8b               DB 0x8b
0x760d5e74 5d               POP EBP

Disassembly(1):
0x13a481 55               PUSH EBP
0x13a482 8bec             MOV EBP, ESP
0x13a484 e8ef0b0000       CALL 0x13b078
0x13a489 84c0             TEST AL, AL
0x13a48b 7415             JZ 0x13a4a2
0x13a48d ff750c           PUSH DWORD [EBP+0xc]
0x13a490 8d4508           LEA EAX, [EBP+0x8]
0x13a493 6a00             PUSH 0x0
0x13a495 6a00             PUSH 0x0
0x13a497 50               PUSH EAX
0x13a498 e8               DB 0xe8

************************************************************************
Hook mode: Usermode
Hook type: Inline/Trampoline
Process: 2060 (dwm.exe)
Victim module: WININET.dll (0x760b0000 - 0x761a5000)
Function: WININET.dll!InternetReadFile at 0x760cb406
Hook address: 0x13a3f8
Hooking module: <unknown>

Disassembly(0):
0x760cb406 e9edef068a       JMP 0x13a3f8
0x760cb40b 83ec38           SUB ESP, 0x38
0x760cb40e 56               PUSH ESI
0x760cb40f 6a38             PUSH 0x38
0x760cb411 8d45c8           LEA EAX, [EBP-0x38]
0x760cb414 6a00             PUSH 0x0
0x760cb416 50               PUSH EAX
0x760cb417 e8ff64feff       CALL 0x760b191b
0x760cb41c 83               DB 0x83
0x760cb41d c4               DB 0xc4

Disassembly(1):
0x13a3f8 55               PUSH EBP
0x13a3f9 8bec             MOV EBP, ESP
0x13a3fb e8780c0000       CALL 0x13b078
0x13a400 84c0             TEST AL, AL
0x13a402 7428             JZ 0x13a42c
0x13a404 33c0             XOR EAX, EAX
0x13a406 39450c           CMP [EBP+0xc], EAX
0x13a409 7421             JZ 0x13a42c
0x13a40b 394510           CMP [EBP+0x10], EAX
0x13a40e 761c             JBE 0x13a42c

************************************************************************
Hook mode: Usermode
Hook type: Inline/Trampoline
Process: 2060 (dwm.exe)
Victim module: WININET.dll (0x760b0000 - 0x761a5000)
Function: WININET.dll!InternetReadFileExA at 0x760fae46
Hook address: 0x13a437
Hooking module: <unknown>

Disassembly(0):
0x760fae46 e9ecf5038a       JMP 0x13a437
0x760fae4b 83ec78           SUB ESP, 0x78
0x760fae4e a1a0931676       MOV EAX, [0x761693a0]
0x760fae53 33c5             XOR EAX, EBP
0x760fae55 8945fc           MOV [EBP-0x4], EAX
0x760fae58 8b4508           MOV EAX, [EBP+0x8]
0x760fae5b 53               PUSH EBX
0x760fae5c 56               PUSH ESI
0x760fae5d 8b               DB 0x8b

Disassembly(1):
0x13a437 55               PUSH EBP
0x13a438 8bec             MOV EBP, ESP
0x13a43a 56               PUSH ESI
0x13a43b e8380c0000       CALL 0x13b078
0x13a440 8b750c           MOV ESI, [EBP+0xc]
0x13a443 84c0             TEST AL, AL
0x13a445 7425             JZ 0x13a46c
0x13a447 85f6             TEST ESI, ESI
0x13a449 7421             JZ 0x13a46c
0x13a44b 8b5614           MOV EDX, [ESI+0x14]
0x13a44e 85               DB 0x85

************************************************************************
Hook mode: Usermode
Hook type: Inline/Trampoline
Process: 2072 (explorer.exe)
Victim module: ntdll.dll (0x771a0000 - 0x772dc000)
Function: ntdll.dll!LdrLoadDll at 0x772022b8
Hook address: 0x4405a6e
Hooking module: <unknown>

Disassembly(0):
0x772022b8 e9b137208d       JMP 0x4405a6e
0x772022bd 51               PUSH ECX
0x772022be 51               PUSH ECX
0x772022bf a158751f77       MOV EAX, [0x771f7558]
0x772022c4 53               PUSH EBX
0x772022c5 56               PUSH ESI
0x772022c6 8b7508           MOV ESI, [EBP+0x8]
0x772022c9 83c801           OR EAX, 0x1
0x772022cc 57               PUSH EDI
0x772022cd bb               DB 0xbb
0x772022ce a2               DB 0xa2
0x772022cf 7e               DB 0x7e

Disassembly(1):
0x4405a6e 55               PUSH EBP
0x4405a6f 8bec             MOV EBP, ESP
0x4405a71 e802560100       CALL 0x441b078
0x4405a76 84c0             TEST AL, AL
0x4405a78 7507             JNZ 0x4405a81
0x4405a7a 5d               POP EBP
0x4405a7b ff2520374204     JMP DWORD [0x4423720]
0x4405a81 53               PUSH EBX
0x4405a82 56               PUSH ESI
0x4405a83 8b7514           MOV ESI, [EBP+0x14]

************************************************************************
Hook mode: Usermode
Hook type: Inline/Trampoline
Process: 2072 (explorer.exe)
Victim module: ntdll.dll (0x771a0000 - 0x772dc000)
Function: ntdll.dll!NtCreateUserProcess at 0x771e5778
Hook address: 0x4405945
Hooking module: <unknown>

Disassembly(0):
0x771e5778 e9c801228d       JMP 0x4405945
0x771e577d ba0003fe7f       MOV EDX, 0x7ffe0300
0x771e5782 ff12             CALL DWORD [EDX]
0x771e5784 c22c00           RET 0x2c
0x771e5787 90               NOP
0x771e5788 b85e000000       MOV EAX, 0x5e
0x771e578d ba               DB 0xba
0x771e578e 0003             ADD [EBX], AL

Disassembly(1):
0x4405945 55               PUSH EBP
0x4405946 8bec             MOV EBP, ESP
0x4405948 81eccc020000     SUB ESP, 0x2cc
0x440594e 53               PUSH EBX
0x440594f ff7530           PUSH DWORD [EBP+0x30]
0x4405952 8b5d08           MOV EBX, [EBP+0x8]
0x4405955 ff752c           PUSH DWORD [EBP+0x2c]
0x4405958 ff7528           PUSH DWORD [EBP+0x28]
0x440595b ff               DB 0xff
0x440595c 75               DB 0x75

************************************************************************
Hook mode: Usermode
Hook type: Inline/Trampoline
Process: 2072 (explorer.exe)
Victim module: ntdll.dll (0x771a0000 - 0x772dc000)
Function: ntdll.dll!ZwCreateUserProcess at 0x771e5778
Hook address: 0x4405945
Hooking module: <unknown>

Disassembly(0):
0x771e5778 e9c801228d       JMP 0x4405945
0x771e577d ba0003fe7f       MOV EDX, 0x7ffe0300
0x771e5782 ff12             CALL DWORD [EDX]
0x771e5784 c22c00           RET 0x2c
0x771e5787 90               NOP
0x771e5788 b85e000000       MOV EAX, 0x5e
0x771e578d ba               DB 0xba
0x771e578e 0003             ADD [EBX], AL

Disassembly(1):
0x4405945 55               PUSH EBP
0x4405946 8bec             MOV EBP, ESP
0x4405948 81eccc020000     SUB ESP, 0x2cc
0x440594e 53               PUSH EBX
0x440594f ff7530           PUSH DWORD [EBP+0x30]
0x4405952 8b5d08           MOV EBX, [EBP+0x8]
0x4405955 ff752c           PUSH DWORD [EBP+0x2c]
0x4405958 ff7528           PUSH DWORD [EBP+0x28]
0x440595b ff               DB 0xff
0x440595c 75               DB 0x75

************************************************************************
Hook mode: Usermode
Hook type: Inline/Trampoline
Process: 2072 (explorer.exe)
Victim module: kernel32.dll (0x75960000 - 0x75a34000)
Function: kernel32.dll!GetFileAttributesExW at 0x759a273d
Hook address: 0x4405b0e
Hooking module: <unknown>

Disassembly(0):
0x759a273d e9cc33a68e       JMP 0x4405b0e
0x759a2742 5d               POP EBP
0x759a2743 eb05             JMP 0x759a274a
0x759a2745 90               NOP
0x759a2746 90               NOP
0x759a2747 90               NOP
0x759a2748 90               NOP
0x759a2749 90               NOP
0x759a274a ff25341a9675     JMP DWORD [0x75961a34]
0x759a2750 33c9             XOR ECX, ECX
0x759a2752 39               DB 0x39
0x759a2753 8d               DB 0x8d
0x759a2754 60               PUSHA

Disassembly(1):
0x4405b0e 55               PUSH EBP
0x4405b0f 8bec             MOV EBP, ESP
0x4405b11 817d0c6063f188   CMP DWORD [EBP+0xc], 0x88f16360
0x4405b18 57               PUSH EDI
0x4405b19 7551             JNZ 0x4405b6c
0x4405b1b 837d0800         CMP DWORD [EBP+0x8], 0x0
0x4405b1f 744b             JZ 0x4405b6c
0x4405b21 e852550100       CALL 0x441b078

************************************************************************
Hook mode: Usermode
Hook type: Inline/Trampoline
Process: 2072 (explorer.exe)
Victim module: USER32.dll (0x76f40000 - 0x77009000)
Function: USER32.dll!BeginPaint at 0x76f55d14
Hook address: 0x4410807
Hooking module: <unknown>

Disassembly(0):
0x76f55d14 e9eeaa4b8d       JMP 0x4410807
0x76f55d19 ba0003fe7f       MOV EDX, 0x7ffe0300
0x76f55d1e ff12             CALL DWORD [EDX]
0x76f55d20 c20800           RET 0x8
0x76f55d23 837d0c00         CMP DWORD [EBP+0xc], 0x0
0x76f55d27 0f               DB 0xf
0x76f55d28 853e             TEST [ESI], EDI
0x76f55d2a a801             TEST AL, 0x1

Disassembly(1):
0x4410807 f605e836420404   TEST BYTE [0x44236e8], 0x4
0x441080e 56               PUSH ESI
0x441080f 8b74240c         MOV ESI, [ESP+0xc]
0x4410813 57               PUSH EDI
0x4410814 8b7c240c         MOV EDI, [ESP+0xc]
0x4410818 7450             JZ 0x441086a
0x441081a e859a80000       CALL 0x441b078

************************************************************************
Hook mode: Usermode
Hook type: Inline/Trampoline
Process: 2072 (explorer.exe)
Victim module: USER32.dll (0x76f40000 - 0x77009000)
Function: USER32.dll!CallWindowProcA at 0x76f72bd3
Hook address: 0x440564b
Hooking module: <unknown>

Disassembly(0):
0x76f72bd3 e9732a498d       JMP 0x440564b
0x76f72bd8 6a01             PUSH 0x1
0x76f72bda ff7518           PUSH DWORD [EBP+0x18]
0x76f72bdd ff7514           PUSH DWORD [EBP+0x14]
0x76f72be0 ff7510           PUSH DWORD [EBP+0x10]
0x76f72be3 ff750c           PUSH DWORD [EBP+0xc]
0x76f72be6 ff7508           PUSH DWORD [EBP+0x8]
0x76f72be9 e8               DB 0xe8
0x76f72bea f2               DB 0xf2

Disassembly(1):
0x440564b 55               PUSH EBP
0x440564c 8bec             MOV EBP, ESP
0x440564e f605e836420404   TEST BYTE [0x44236e8], 0x4
0x4405655 56               PUSH ESI
0x4405656 8b7510           MOV ESI, [EBP+0x10]
0x4405659 7421             JZ 0x440567c
0x440565b e8185a0100       CALL 0x441b078
0x4405660 84c0             TEST AL, AL
0x4405662 74               DB 0x74

************************************************************************
Hook mode: Usermode
Hook type: Inline/Trampoline
Process: 2072 (explorer.exe)
Victim module: USER32.dll (0x76f40000 - 0x77009000)
Function: USER32.dll!CallWindowProcW at 0x76f51b3c
Hook address: 0x4405602
Hooking module: <unknown>

Disassembly(0):
0x76f51b3c e9c13a4b8d       JMP 0x4405602
0x76f51b41 6a00             PUSH 0x0
0x76f51b43 ff7518           PUSH DWORD [EBP+0x18]
0x76f51b46 ff7514           PUSH DWORD [EBP+0x14]
0x76f51b49 ff7510           PUSH DWORD [EBP+0x10]
0x76f51b4c ff750c           PUSH DWORD [EBP+0xc]
0x76f51b4f ff7508           PUSH DWORD [EBP+0x8]
0x76f51b52 e8               DB 0xe8
0x76f51b53 89               DB 0x89

Disassembly(1):
0x4405602 55               PUSH EBP
0x4405603 8bec             MOV EBP, ESP
0x4405605 f605e836420404   TEST BYTE [0x44236e8], 0x4
0x440560c 56               PUSH ESI
0x440560d 8b7510           MOV ESI, [EBP+0x10]
0x4405610 7421             JZ 0x4405633
0x4405612 e8615a0100       CALL 0x441b078
0x4405617 84c0             TEST AL, AL
0x4405619 74               DB 0x74

************************************************************************
Hook mode: Usermode
Hook type: Inline/Trampoline
Process: 2072 (explorer.exe)
Victim module: USER32.dll (0x76f40000 - 0x77009000)
Function: USER32.dll!DefDlgProcA at 0x76f671e4
Hook address: 0x440549e
Hooking module: <unknown>

Disassembly(0):
0x76f671e4 e9b5e2498d       JMP 0x440549e
0x76f671e9 8b4d08           MOV ECX, [EBP+0x8]
0x76f671ec e81f53ffff       CALL 0x76f5c510
0x76f671f1 85c0             TEST EAX, EAX
0x76f671f3 7411             JZ 0x76f67206
0x76f671f5 6a01             PUSH 0x1
0x76f671f7 ff7514           PUSH DWORD [EBP+0x14]
0x76f671fa ff               DB 0xff
0x76f671fb 75               DB 0x75

Disassembly(1):
0x440549e 55               PUSH EBP
0x440549f 8bec             MOV EBP, ESP
0x44054a1 f605e836420404   TEST BYTE [0x44236e8], 0x4
0x44054a8 56               PUSH ESI
0x44054a9 8b750c           MOV ESI, [EBP+0xc]
0x44054ac 7421             JZ 0x44054cf
0x44054ae e8c55b0100       CALL 0x441b078
0x44054b3 84c0             TEST AL, AL
0x44054b5 74               DB 0x74

************************************************************************
Hook mode: Usermode
Hook type: Inline/Trampoline
Process: 2072 (explorer.exe)
Victim module: USER32.dll (0x76f40000 - 0x77009000)
Function: USER32.dll!DefDlgProcW at 0x76f75bc1
Hook address: 0x4405458
Hooking module: <unknown>

Disassembly(0):
0x76f75bc1 e992f8488d       JMP 0x4405458
0x76f75bc6 8b4d08           MOV ECX, [EBP+0x8]
0x76f75bc9 e84269feff       CALL 0x76f5c510
0x76f75bce 85c0             TEST EAX, EAX
0x76f75bd0 7411             JZ 0x76f75be3
0x76f75bd2 6a00             PUSH 0x0
0x76f75bd4 ff7514           PUSH DWORD [EBP+0x14]
0x76f75bd7 ff               DB 0xff
0x76f75bd8 75               DB 0x75

Disassembly(1):
0x4405458 55               PUSH EBP
0x4405459 8bec             MOV EBP, ESP
0x440545b f605e836420404   TEST BYTE [0x44236e8], 0x4
0x4405462 56               PUSH ESI
0x4405463 8b750c           MOV ESI, [EBP+0xc]
0x4405466 7421             JZ 0x4405489
0x4405468 e80b5c0100       CALL 0x441b078
0x440546d 84c0             TEST AL, AL
0x440546f 74               DB 0x74

************************************************************************
Hook mode: Usermode
Hook type: Inline/Trampoline
Process: 2072 (explorer.exe)
Victim module: USER32.dll (0x76f40000 - 0x77009000)
Function: USER32.dll!DefFrameProcA at 0x76f725b7
Hook address: 0x440552d
Hooking module: <unknown>

Disassembly(0):
0x76f725b7 e9712f498d       JMP 0x440552d
0x76f725bc 6a01             PUSH 0x1
0x76f725be ff7518           PUSH DWORD [EBP+0x18]
0x76f725c1 ff7514           PUSH DWORD [EBP+0x14]
0x76f725c4 ff7510           PUSH DWORD [EBP+0x10]
0x76f725c7 ff750c           PUSH DWORD [EBP+0xc]
0x76f725ca ff7508           PUSH DWORD [EBP+0x8]
0x76f725cd e8               DB 0xe8
0x76f725ce b9               DB 0xb9

Disassembly(1):
0x440552d 55               PUSH EBP
0x440552e 8bec             MOV EBP, ESP
0x4405530 f605e836420404   TEST BYTE [0x44236e8], 0x4
0x4405537 56               PUSH ESI
0x4405538 8b7510           MOV ESI, [EBP+0x10]
0x440553b 7421             JZ 0x440555e
0x440553d e8365b0100       CALL 0x441b078
0x4405542 84c0             TEST AL, AL
0x4405544 74               DB 0x74

************************************************************************
Hook mode: Usermode
Hook type: Inline/Trampoline
Process: 2072 (explorer.exe)
Victim module: USER32.dll (0x76f40000 - 0x77009000)
Function: USER32.dll!DefFrameProcW at 0x76f7152b
Hook address: 0x44054e4
Hooking module: <unknown>

Disassembly(0):
0x76f7152b e9b43f498d       JMP 0x44054e4
0x76f71530 6a00             PUSH 0x0
0x76f71532 ff7518           PUSH DWORD [EBP+0x18]
0x76f71535 ff7514           PUSH DWORD [EBP+0x14]
0x76f71538 ff7510           PUSH DWORD [EBP+0x10]
0x76f7153b ff750c           PUSH DWORD [EBP+0xc]
0x76f7153e ff7508           PUSH DWORD [EBP+0x8]
0x76f71541 e8               DB 0xe8
0x76f71542 45               INC EBP

Disassembly(1):
0x44054e4 55               PUSH EBP
0x44054e5 8bec             MOV EBP, ESP
0x44054e7 f605e836420404   TEST BYTE [0x44236e8], 0x4
0x44054ee 56               PUSH ESI
0x44054ef 8b7510           MOV ESI, [EBP+0x10]
0x44054f2 7421             JZ 0x4405515
0x44054f4 e87f5b0100       CALL 0x441b078
0x44054f9 84c0             TEST AL, AL
0x44054fb 74               DB 0x74

************************************************************************
Hook mode: Usermode
Hook type: Inline/Trampoline
Process: 2072 (explorer.exe)
Victim module: USER32.dll (0x76f40000 - 0x77009000)
Function: USER32.dll!DefMDIChildProcA at 0x76f725db
Hook address: 0x44055bc
Hooking module: <unknown>

Disassembly(0):
0x76f725db e9dc2f498d       JMP 0x44055bc
0x76f725e0 6a01             PUSH 0x1
0x76f725e2 ff7514           PUSH DWORD [EBP+0x14]
0x76f725e5 ff7510           PUSH DWORD [EBP+0x10]
0x76f725e8 ff750c           PUSH DWORD [EBP+0xc]
0x76f725eb ff7508           PUSH DWORD [EBP+0x8]
0x76f725ee e892f6ffff       CALL 0x76f71c85

Disassembly(1):
0x44055bc 55               PUSH EBP
0x44055bd 8bec             MOV EBP, ESP
0x44055bf f605e836420404   TEST BYTE [0x44236e8], 0x4
0x44055c6 56               PUSH ESI
0x44055c7 8b750c           MOV ESI, [EBP+0xc]
0x44055ca 7421             JZ 0x44055ed
0x44055cc e8a75a0100       CALL 0x441b078
0x44055d1 84c0             TEST AL, AL
0x44055d3 74               DB 0x74

************************************************************************
Hook mode: Usermode
Hook type: Inline/Trampoline
Process: 2072 (explorer.exe)
Victim module: USER32.dll (0x76f40000 - 0x77009000)
Function: USER32.dll!DefMDIChildProcW at 0x76f7150a
Hook address: 0x4405576
Hooking module: <unknown>

Disassembly(0):
0x76f7150a e96740498d       JMP 0x4405576
0x76f7150f 6a00             PUSH 0x0
0x76f71511 ff7514           PUSH DWORD [EBP+0x14]
0x76f71514 ff7510           PUSH DWORD [EBP+0x10]
0x76f71517 ff750c           PUSH DWORD [EBP+0xc]
0x76f7151a ff7508           PUSH DWORD [EBP+0x8]
0x76f7151d e863070000       CALL 0x76f71c85

Disassembly(1):
0x4405576 55               PUSH EBP
0x4405577 8bec             MOV EBP, ESP
0x4405579 f605e836420404   TEST BYTE [0x44236e8], 0x4
0x4405580 56               PUSH ESI
0x4405581 8b750c           MOV ESI, [EBP+0xc]
0x4405584 7421             JZ 0x44055a7
0x4405586 e8ed5a0100       CALL 0x441b078
0x440558b 84c0             TEST AL, AL
0x440558d 74               DB 0x74

************************************************************************
Hook mode: Usermode
Hook type: Inline/Trampoline
Process: 2072 (explorer.exe)
Victim module: USER32.dll (0x76f40000 - 0x77009000)
Function: USER32.dll!DefWindowProcA at 0x76f4bb1c
Hook address: 0x4405412
Hooking module: <unknown>

Disassembly(0):
0x76f4bb1c e9f1984b8d       JMP 0x4405412
0x76f4bb21 f4               HLT
0x76f4bb22 76e8             JBE 0x76f4bb0c
0x76f4bb24 f8               CLC
0x76f4bb25 0801             OR [ECX], AL
0x76f4bb27 00e8             ADD AL, CH
0x76f4bb29 830901           OR DWORD [ECX], 0x1
0x76f4bb2c 00833dd89afa     ADD [EBX-0x56527c3], AL
0x76f4bb32 7600             JBE 0x76f4bb34

Disassembly(1):
0x4405412 55               PUSH EBP
0x4405413 8bec             MOV EBP, ESP
0x4405415 f605e836420404   TEST BYTE [0x44236e8], 0x4
0x440541c 56               PUSH ESI
0x440541d 8b750c           MOV ESI, [EBP+0xc]
0x4405420 7421             JZ 0x4405443
0x4405422 e8515c0100       CALL 0x441b078
0x4405427 84c0             TEST AL, AL
0x4405429 74               DB 0x74

************************************************************************
Hook mode: Usermode
Hook type: Inline/Trampoline
Process: 2072 (explorer.exe)
Victim module: USER32.dll (0x76f40000 - 0x77009000)
Function: USER32.dll!DefWindowProcW at 0x76f5507d
Hook address: 0x44053cc
Hooking module: <unknown>

Disassembly(0):
0x76f5507d e94a034b8d       JMP 0x44053cc
0x76f55082 f5               CMC
0x76f55083 76e8             JBE 0x76f5506d
0x76f55085 97               XCHG EDI, EAX
0x76f55086 7300             JAE 0x76f55088
0x76f55088 00e8             ADD AL, CH
0x76f5508a 22740000         AND DH, [EAX+EAX+0x0]
0x76f5508e 833dd89afa7600   CMP DWORD [0x76fa9ad8], 0x0

Disassembly(1):
0x44053cc 55               PUSH EBP
0x44053cd 8bec             MOV EBP, ESP
0x44053cf f605e836420404   TEST BYTE [0x44236e8], 0x4
0x44053d6 56               PUSH ESI
0x44053d7 8b750c           MOV ESI, [EBP+0xc]
0x44053da 7421             JZ 0x44053fd
0x44053dc e8975c0100       CALL 0x441b078
0x44053e1 84c0             TEST AL, AL
0x44053e3 74               DB 0x74

************************************************************************
Hook mode: Usermode
Hook type: Inline/Trampoline
Process: 2072 (explorer.exe)
Victim module: USER32.dll (0x76f40000 - 0x77009000)
Function: USER32.dll!EndPaint at 0x76f55d42
Hook address: 0x4410877
Hooking module: <unknown>

Disassembly(0):
0x76f55d42 e930ab4b8d       JMP 0x4410877
0x76f55d47 ba0003fe7f       MOV EDX, 0x7ffe0300
0x76f55d4c ff12             CALL DWORD [EDX]
0x76f55d4e c20800           RET 0x8
0x76f55d51 90               NOP
0x76f55d52 90               NOP
0x76f55d53 90               NOP
0x76f55d54 90               NOP
0x76f55d55 90               NOP
0x76f55d56 8bff             MOV EDI, EDI
0x76f55d58 55               PUSH EBP
0x76f55d59 8b               DB 0x8b

Disassembly(1):
0x4410877 f605e836420404   TEST BYTE [0x44236e8], 0x4
0x441087e 56               PUSH ESI
0x441087f 8b742408         MOV ESI, [ESP+0x8]
0x4410883 7423             JZ 0x44108a8
0x4410885 e8eea70000       CALL 0x441b078
0x441088a 84c0             TEST AL, AL
0x441088c 741a             JZ 0x44108a8
0x441088e ff               DB 0xff

************************************************************************
Hook mode: Usermode
Hook type: Inline/Trampoline
Process: 2072 (explorer.exe)
Victim module: USER32.dll (0x76f40000 - 0x77009000)
Function: USER32.dll!GetCapture at 0x76f49dc7
Hook address: 0x440d9b3
Hooking module: <unknown>

Disassembly(0):
0x76f49dc7 e9e73b4c8d       JMP 0x440d9b3
0x76f49dcc 83b8080b000000   CMP DWORD [EAX+0xb08], 0x0
0x76f49dd3 0f8582c80200     JNZ 0x76f7665b
0x76f49dd9 33c0             XOR EAX, EAX
0x76f49ddb c3               RET
0x76f49ddc 3b5d0c           CMP EBX, [EBP+0xc]

Disassembly(1):
0x440d9b3 f605e836420404   TEST BYTE [0x44236e8], 0x4
0x440d9ba 56               PUSH ESI
0x440d9bb 744b             JZ 0x440da08
0x440d9bd e8b6d60000       CALL 0x441b078
0x440d9c2 84c0             TEST AL, AL
0x440d9c4 7442             JZ 0x440da08
0x440d9c6 ff               DB 0xff
0x440d9c7 15               DB 0x15
0x440d9c8 7412             JZ 0x440d9dc
0x440d9ca 40               INC EAX

************************************************************************
Hook mode: Usermode
Hook type: Inline/Trampoline
Process: 2072 (explorer.exe)
Victim module: USER32.dll (0x76f40000 - 0x77009000)
Function: USER32.dll!GetClipboardData at 0x76f62ba7
Hook address: 0x440fa85
Hooking module: <unknown>

Disassembly(0):
0x76f62ba7 e9d9ce4a8d       JMP 0x440fa85
0x76f62bac 83ec2c           SUB ESP, 0x2c
0x76f62baf 57               PUSH EDI
0x76f62bb0 8d45d4           LEA EAX, [EBP-0x2c]
0x76f62bb3 50               PUSH EAX
0x76f62bb4 ff7508           PUSH DWORD [EBP+0x8]
0x76f62bb7 e8d7ffffff       CALL 0x76f62b93
0x76f62bbc 33ff             XOR EDI, EDI
0x76f62bbe 89               DB 0x89

Disassembly(1):
0x440fa85 55               PUSH EBP
0x440fa86 8bec             MOV EBP, ESP
0x440fa88 56               PUSH ESI
0x440fa89 8b7508           MOV ESI, [EBP+0x8]
0x440fa8c 57               PUSH EDI
0x440fa8d 56               PUSH ESI
0x440fa8e ff1544144004     CALL DWORD [0x4401444]
0x440fa94 8bf8             MOV EDI, EAX
0x440fa96 897d08           MOV [EBP+0x8], EDI
0x440fa99 e8               DB 0xe8
0x440fa9a da               DB 0xda
0x440fa9b b500             MOV CH, 0x0

************************************************************************
Hook mode: Usermode
Hook type: Inline/Trampoline
Process: 2072 (explorer.exe)
Victim module: USER32.dll (0x76f40000 - 0x77009000)
Function: USER32.dll!GetCursorPos at 0x76f4a4b3
Hook address: 0x440d885
Hooking module: <unknown>

Disassembly(0):
0x76f4a4b3 e9cd334c8d       JMP 0x440d885
0x76f4a4b8 6a69             PUSH 0x69
0x76f4a4ba 6a01             PUSH 0x1
0x76f4a4bc ff7508           PUSH DWORD [EBP+0x8]
0x76f4a4bf e808370000       CALL 0x76f4dbcc
0x76f4a4c4 5d               POP EBP
0x76f4a4c5 c20400           RET 0x4
0x76f4a4c8 90               NOP
0x76f4a4c9 90               NOP
0x76f4a4ca 90               NOP

Disassembly(1):
0x440d885 f605e836420404   TEST BYTE [0x44236e8], 0x4
0x440d88c 7438             JZ 0x440d8c6
0x440d88e e8e5d70000       CALL 0x441b078
0x440d893 84c0             TEST AL, AL
0x440d895 742f             JZ 0x440d8c6
0x440d897 8b442404         MOV EAX, [ESP+0x4]
0x440d89b 85c0             TEST EAX, EAX

************************************************************************
Hook mode: Usermode
Hook type: Inline/Trampoline
Process: 2072 (explorer.exe)
Victim module: USER32.dll (0x76f40000 - 0x77009000)
Function: USER32.dll!GetDC at 0x76f5544c
Hook address: 0x4410912
Hooking module: <unknown>

Disassembly(0):
0x76f5544c e9c1b44b8d       JMP 0x4410912
0x76f55451 ba0003fe7f       MOV EDX, 0x7ffe0300
0x76f55456 ff12             CALL DWORD [EDX]
0x76f55458 c20400           RET 0x4
0x76f5545b 90               NOP
0x76f5545c 90               NOP
0x76f5545d 90               NOP
0x76f5545e 90               NOP
0x76f5545f 90               NOP
0x76f55460 8bff             MOV EDI, EDI
0x76f55462 55               PUSH EBP
0x76f55463 8b               DB 0x8b

Disassembly(1):
0x4410912 f605e836420404   TEST BYTE [0x44236e8], 0x4
0x4410919 56               PUSH ESI
0x441091a 8b742408         MOV ESI, [ESP+0x8]
0x441091e 7426             JZ 0x4410946
0x4410920 e853a70000       CALL 0x441b078
0x4410925 84c0             TEST AL, AL
0x4410927 741d             JZ 0x4410946
0x4410929 ff               DB 0xff

************************************************************************
Hook mode: Usermode
Hook type: Inline/Trampoline
Process: 2072 (explorer.exe)
Victim module: USER32.dll (0x76f40000 - 0x77009000)
Function: USER32.dll!GetDCEx at 0x76f52d57
Hook address: 0x44108b7
Hooking module: <unknown>

Disassembly(0):
0x76f52d57 e95bdb4b8d       JMP 0x44108b7
0x76f52d5c ba0003fe7f       MOV EDX, 0x7ffe0300
0x76f52d61 ff12             CALL DWORD [EDX]
0x76f52d63 c20c00           RET 0xc
0x76f52d66 85ff             TEST EDI, EDI
0x76f52d68 0f84200c0000     JZ 0x76f5398e
0x76f52d6e 85               DB 0x85

Disassembly(1):
0x44108b7 55               PUSH EBP
0x44108b8 8bec             MOV EBP, ESP
0x44108ba f605e836420404   TEST BYTE [0x44236e8], 0x4
0x44108c1 56               PUSH ESI
0x44108c2 57               PUSH EDI
0x44108c3 8b7d08           MOV EDI, [EBP+0x8]
0x44108c6 7437             JZ 0x44108ff
0x44108c8 e8aba70000       CALL 0x441b078
0x44108cd 84c0             TEST AL, AL

************************************************************************
Hook mode: Usermode
Hook type: Inline/Trampoline
Process: 2072 (explorer.exe)
Victim module: USER32.dll (0x76f40000 - 0x77009000)
Function: USER32.dll!GetMessageA at 0x76f51899
Hook address: 0x440da7a
Hooking module: <unknown>

Disassembly(0):
0x76f51899 e9dcc14b8d       JMP 0x440da7a
0x76f5189e 8b5510           MOV EDX, [EBP+0x10]
0x76f518a1 8b4d14           MOV ECX, [EBP+0x14]
0x76f518a4 56               PUSH ESI
0x76f518a5 8bf2             MOV ESI, EDX
0x76f518a7 0bf1             OR ESI, ECX
0x76f518a9 b80000feff       MOV EAX, 0xfffe0000
0x76f518ae 85f0             TEST EAX, ESI
0x76f518b0 0f               DB 0xf

Disassembly(1):
0x440da7a 56               PUSH ESI
0x440da7b 8b742408         MOV ESI, [ESP+0x8]
0x440da7f 57               PUSH EDI
0x440da80 ff742418         PUSH DWORD [ESP+0x18]
0x440da84 ff742418         PUSH DWORD [ESP+0x18]
0x440da88 ff742418         PUSH DWORD [ESP+0x18]
0x440da8c 56               PUSH ESI
0x440da8d ff               DB 0xff
0x440da8e 15               DB 0x15
0x440da8f 98               CWDE
0x440da90 1440             ADC AL, 0x40

************************************************************************
Hook mode: Usermode
Hook type: Inline/Trampoline
Process: 2072 (explorer.exe)
Victim module: USER32.dll (0x76f40000 - 0x77009000)
Function: USER32.dll!GetMessagePos at 0x76f76703
Hook address: 0x440d853
Hooking module: <unknown>

Disassembly(0):
0x76f76703 e94b71498d       JMP 0x440d853
0x76f76708 fe               DB 0xfe
0x76f76709 ffc3             INC EBX
0x76f7670b 83650c00         AND DWORD [EBP+0xc], 0x0
0x76f7670f e9a1f0fdff       JMP 0x76f557b5
0x76f76714 8b430c           MOV EAX, [EBX+0xc]
0x76f76717 3bc2             CMP EAX, EDX
0x76f76719 0f               DB 0xf
0x76f7671a 85               DB 0x85

Disassembly(1):
0x440d853 f605e836420404   TEST BYTE [0x44236e8], 0x4
0x440d85a 7423             JZ 0x440d87f
0x440d85c e817d80000       CALL 0x441b078
0x440d861 84c0             TEST AL, AL
0x440d863 741a             JZ 0x440d87f
0x440d865 8b0db8234204     MOV ECX, [0x44223b8]

************************************************************************
Hook mode: Usermode
Hook type: Inline/Trampoline
Process: 2072 (explorer.exe)
Victim module: USER32.dll (0x76f40000 - 0x77009000)
Function: USER32.dll!GetMessageW at 0x76f5cde8
Hook address: 0x440da52
Hooking module: <unknown>

Disassembly(0):
0x76f5cde8 e9650c4b8d       JMP 0x440da52
0x76f5cded 8b5510           MOV EDX, [EBP+0x10]
0x76f5cdf0 8b4d14           MOV ECX, [EBP+0x14]
0x76f5cdf3 0bd1             OR EDX, ECX
0x76f5cdf5 b80000feff       MOV EAX, 0xfffe0000
0x76f5cdfa 85d0             TEST EAX, EDX
0x76f5cdfc 0f               DB 0xf
0x76f5cdfd 857801           TEST [EAX+0x1], EDI

Disassembly(1):
0x440da52 56               PUSH ESI
0x440da53 8b742408         MOV ESI, [ESP+0x8]
0x440da57 57               PUSH EDI
0x440da58 ff742418         PUSH DWORD [ESP+0x18]
0x440da5c ff742418         PUSH DWORD [ESP+0x18]
0x440da60 ff742418         PUSH DWORD [ESP+0x18]
0x440da64 56               PUSH ESI
0x440da65 ff               DB 0xff
0x440da66 15               DB 0x15
0x440da67 101440           ADC [EAX+EAX*2], DL

************************************************************************
Hook mode: Usermode
Hook type: Inline/Trampoline
Process: 2072 (explorer.exe)
Victim module: USER32.dll (0x76f40000 - 0x77009000)
Function: USER32.dll!GetUpdateRect at 0x76f4a575
Hook address: 0x44109d0
Hooking module: <unknown>

Disassembly(0):
0x76f4a575 e956644c8d       JMP 0x44109d0
0x76f4a57a 8b4d08           MOV ECX, [EBP+0x8]
0x76f4a57d e88e1f0100       CALL 0x76f5c510
0x76f4a582 85c0             TEST EAX, EAX
0x76f4a584 7423             JZ 0x76f4a5a9
0x76f4a586 83786800         CMP DWORD [EAX+0x68], 0x0
0x76f4a58a 7535             JNZ 0x76f4a5c1
0x76f4a58c f6               DB 0xf6

Disassembly(1):
0x44109d0 55               PUSH EBP
0x44109d1 8bec             MOV EBP, ESP
0x44109d3 f605e836420404   TEST BYTE [0x44236e8], 0x4
0x44109da 53               PUSH EBX
0x44109db 8b5d08           MOV EBX, [EBP+0x8]
0x44109de 56               PUSH ESI
0x44109df 746f             JZ 0x4410a50
0x44109e1 e892a60000       CALL 0x441b078
0x44109e6 84c0             TEST AL, AL

************************************************************************
Hook mode: Usermode
Hook type: Inline/Trampoline
Process: 2072 (explorer.exe)
Victim module: USER32.dll (0x76f40000 - 0x77009000)
Function: USER32.dll!GetUpdateRgn at 0x76f71c07
Hook address: 0x4410a63
Hooking module: <unknown>

Disassembly(0):
0x76f71c07 e957ee498d       JMP 0x4410a63
0x76f71c0c 56               PUSH ESI
0x76f71c0d 33f6             XOR ESI, ESI
0x76f71c0f 39750c           CMP [EBP+0xc], ESI
0x76f71c12 0f8415710000     JZ 0x76f78d2d
0x76f71c18 8b4d08           MOV ECX, [EBP+0x8]
0x76f71c1b e8               DB 0xe8
0x76f71c1c f0a8fe           TEST AL, 0xfe

Disassembly(1):
0x4410a63 55               PUSH EBP
0x4410a64 8bec             MOV EBP, ESP
0x4410a66 f605e836420404   TEST BYTE [0x44236e8], 0x4
0x4410a6d 53               PUSH EBX
0x4410a6e 8b5d08           MOV EBX, [EBP+0x8]
0x4410a71 56               PUSH ESI
0x4410a72 7470             JZ 0x4410ae4
0x4410a74 e8ffa50000       CALL 0x441b078
0x4410a79 84c0             TEST AL, AL

************************************************************************
Hook mode: Usermode
Hook type: Inline/Trampoline
Process: 2072 (explorer.exe)
Victim module: USER32.dll (0x76f40000 - 0x77009000)
Function: USER32.dll!GetWindowDC at 0x76f54ab7
Hook address: 0x4410951
Hooking module: <unknown>

Disassembly(0):
0x76f54ab7 e995be4b8d       JMP 0x4410951
0x76f54abc ba0003fe7f       MOV EDX, 0x7ffe0300
0x76f54ac1 ff12             CALL DWORD [EDX]
0x76f54ac3 c20400           RET 0x4
0x76f54ac6 80faff           CMP DL, 0xff
0x76f54ac9 0f85cc080000     JNZ 0x76f5539b

Disassembly(1):
0x4410951 f605e836420404   TEST BYTE [0x44236e8], 0x4
0x4410958 56               PUSH ESI
0x4410959 8b742408         MOV ESI, [ESP+0x8]
0x441095d 7426             JZ 0x4410985
0x441095f e814a70000       CALL 0x441b078
0x4410964 84c0             TEST AL, AL
0x4410966 741d             JZ 0x4410985
0x4410968 ff               DB 0xff

************************************************************************
Hook mode: Usermode
Hook type: Inline/Trampoline
Process: 2072 (explorer.exe)
Victim module: USER32.dll (0x76f40000 - 0x77009000)
Function: USER32.dll!OpenInputDesktop at 0x76f45c39
Hook address: 0x440535e
Hooking module: <unknown>

Disassembly(0):
0x76f45c39 e920f74b8d       JMP 0x440535e
0x76f45c3e ba0003fe7f       MOV EDX, 0x7ffe0300
0x76f45c43 ff12             CALL DWORD [EDX]
0x76f45c45 c20c00           RET 0xc
0x76f45c48 0000             ADD [EAX], AL
0x76f45c4a 895de0           MOV [EBP-0x20], EBX
0x76f45c4d e9               DB 0xe9
0x76f45c4e 1e               PUSH DS
0x76f45c4f 3d               DB 0x3d
0x76f45c50 00               DB 0x0

Disassembly(1):
0x440535e 55               PUSH EBP
0x440535f 8bec             MOV EBP, ESP
0x4405361 83ec64           SUB ESP, 0x64
0x4405364 f605e836420404   TEST BYTE [0x44236e8], 0x4
0x440536b 742e             JZ 0x440539b
0x440536d e8065d0100       CALL 0x441b078
0x4405372 84c0             TEST AL, AL
0x4405374 7425             JZ 0x440539b

************************************************************************
Hook mode: Usermode
Hook type: Inline/Trampoline
Process: 2072 (explorer.exe)
Victim module: USER32.dll (0x76f40000 - 0x77009000)
Function: USER32.dll!PeekMessageA at 0x76f519a5
Hook address: 0x440dacd
Hooking module: <unknown>

Disassembly(0):
0x76f519a5 e923c14b8d       JMP 0x440dacd
0x76f519aa 53               PUSH EBX
0x76f519ab 56               PUSH ESI
0x76f519ac 648b3518000000   MOV ESI, [FS:0x18]
0x76f519b3 33c9             XOR ECX, ECX
0x76f519b5 81c6cc060000     ADD ESI, 0x6cc
0x76f519bb 57               PUSH EDI
0x76f519bc 39               DB 0x39

Disassembly(1):
0x440dacd 55               PUSH EBP
0x440dace 8bec             MOV EBP, ESP
0x440dad0 56               PUSH ESI
0x440dad1 8b7508           MOV ESI, [EBP+0x8]
0x440dad4 57               PUSH EDI
0x440dad5 ff7518           PUSH DWORD [EBP+0x18]
0x440dad8 ff7514           PUSH DWORD [EBP+0x14]
0x440dadb ff7510           PUSH DWORD [EBP+0x10]
0x440dade ff750c           PUSH DWORD [EBP+0xc]
0x440dae1 56               PUSH ESI
0x440dae2 ff               DB 0xff
0x440dae3 15               DB 0x15
0x440dae4 54               PUSH ESP

************************************************************************
Hook mode: Usermode
Hook type: Inline/Trampoline
Process: 2072 (explorer.exe)
Victim module: USER32.dll (0x76f40000 - 0x77009000)
Function: USER32.dll!PeekMessageW at 0x76f5634a
Hook address: 0x440daa2
Hooking module: <unknown>

Disassembly(0):
0x76f5634a e953774b8d       JMP 0x440daa2
0x76f5634f 53               PUSH EBX
0x76f56350 56               PUSH ESI
0x76f56351 648b3518000000   MOV ESI, [FS:0x18]
0x76f56358 33c9             XOR ECX, ECX
0x76f5635a 81c6cc060000     ADD ESI, 0x6cc
0x76f56360 57               PUSH EDI
0x76f56361 39               DB 0x39

Disassembly(1):
0x440daa2 55               PUSH EBP
0x440daa3 8bec             MOV EBP, ESP
0x440daa5 56               PUSH ESI
0x440daa6 8b7508           MOV ESI, [EBP+0x8]
0x440daa9 57               PUSH EDI
0x440daaa ff7518           PUSH DWORD [EBP+0x18]
0x440daad ff7514           PUSH DWORD [EBP+0x14]
0x440dab0 ff7510           PUSH DWORD [EBP+0x10]
0x440dab3 ff750c           PUSH DWORD [EBP+0xc]
0x440dab6 56               PUSH ESI
0x440dab7 ff               DB 0xff
0x440dab8 15               DB 0x15
0x440dab9 50               PUSH EAX

************************************************************************
Hook mode: Usermode
Hook type: Inline/Trampoline
Process: 2072 (explorer.exe)
Victim module: USER32.dll (0x76f40000 - 0x77009000)
Function: USER32.dll!RegisterClassA at 0x76f4bc6a
Hook address: 0x440571d
Hooking module: <unknown>

Disassembly(0):
0x76f4bc6a e9ae9a4b8d       JMP 0x440571d
0x76f4bc6f 83ec30           SUB ESP, 0x30
0x76f4bc72 8b4508           MOV EAX, [EBP+0x8]
0x76f4bc75 56               PUSH ESI
0x76f4bc76 57               PUSH EDI
0x76f4bc77 6a09             PUSH 0x9
0x76f4bc79 59               POP ECX
0x76f4bc7a 8d7004           LEA ESI, [EAX+0x4]
0x76f4bc7d 8b00             MOV EAX, [EAX]
0x76f4bc7f 6a01             PUSH 0x1
0x76f4bc81 8d               DB 0x8d

Disassembly(1):
0x440571d 55               PUSH EBP
0x440571e 8bec             MOV EBP, ESP
0x4405720 83ec28           SUB ESP, 0x28
0x4405723 f605e836420404   TEST BYTE [0x44236e8], 0x4
0x440572a 56               PUSH ESI
0x440572b 8b7508           MOV ESI, [EBP+0x8]
0x440572e 742e             JZ 0x440575e
0x4405730 e843590100       CALL 0x441b078

************************************************************************
Hook mode: Usermode
Hook type: Inline/Trampoline
Process: 2072 (explorer.exe)
Victim module: USER32.dll (0x76f40000 - 0x77009000)
Function: USER32.dll!RegisterClassExA at 0x76f46293
Hook address: 0x44057bc
Hooking module: <unknown>

Disassembly(0):
0x76f46293 e924f54b8d       JMP 0x44057bc
0x76f46298 8b4508           MOV EAX, [EBP+0x8]
0x76f4629b 833830           CMP DWORD [EAX], 0x30
0x76f4629e 0f853e0a0400     JNZ 0x76f86ce2
0x76f462a4 6a01             PUSH 0x1
0x76f462a6 6880000000       PUSH DWORD 0x80

Disassembly(1):
0x44057bc 55               PUSH EBP
0x44057bd 8bec             MOV EBP, ESP
0x44057bf 83ec30           SUB ESP, 0x30
0x44057c2 f605e836420404   TEST BYTE [0x44236e8], 0x4
0x44057c9 56               PUSH ESI
0x44057ca 8b7508           MOV ESI, [EBP+0x8]
0x44057cd 7433             JZ 0x4405802
0x44057cf e8a4580100       CALL 0x441b078

************************************************************************
Hook mode: Usermode
Hook type: Inline/Trampoline
Process: 2072 (explorer.exe)
Victim module: USER32.dll (0x76f40000 - 0x77009000)
Function: USER32.dll!RegisterClassExW at 0x76f50162
Hook address: 0x440576a
Hooking module: <unknown>

Disassembly(0):
0x76f50162 e903564b8d       JMP 0x440576a
0x76f50167 8b4508           MOV EAX, [EBP+0x8]
0x76f5016a 833830           CMP DWORD [EAX], 0x30
0x76f5016d 0f85899e0200     JNZ 0x76f79ffc
0x76f50173 6a01             PUSH 0x1
0x76f50175 6880000000       PUSH DWORD 0x80

Disassembly(1):
0x440576a 55               PUSH EBP
0x440576b 8bec             MOV EBP, ESP
0x440576d 83ec30           SUB ESP, 0x30
0x4405770 f605e836420404   TEST BYTE [0x44236e8], 0x4
0x4405777 56               PUSH ESI
0x4405778 8b7508           MOV ESI, [EBP+0x8]
0x440577b 7433             JZ 0x44057b0
0x440577d e8f6580100       CALL 0x441b078

************************************************************************
Hook mode: Usermode
Hook type: Inline/Trampoline
Process: 2072 (explorer.exe)
Victim module: USER32.dll (0x76f40000 - 0x77009000)
Function: USER32.dll!RegisterClassW at 0x76f4ed4a
Hook address: 0x44056d0
Hooking module: <unknown>

Disassembly(0):
0x76f4ed4a e981694b8d       JMP 0x44056d0
0x76f4ed4f 83ec30           SUB ESP, 0x30
0x76f4ed52 8b4508           MOV EAX, [EBP+0x8]
0x76f4ed55 56               PUSH ESI
0x76f4ed56 57               PUSH EDI
0x76f4ed57 6a09             PUSH 0x9
0x76f4ed59 59               POP ECX
0x76f4ed5a 8d7004           LEA ESI, [EAX+0x4]
0x76f4ed5d 8b00             MOV EAX, [EAX]
0x76f4ed5f 6a01             PUSH 0x1
0x76f4ed61 8d               DB 0x8d

Disassembly(1):
0x44056d0 55               PUSH EBP
0x44056d1 8bec             MOV EBP, ESP
0x44056d3 83ec28           SUB ESP, 0x28
0x44056d6 f605e836420404   TEST BYTE [0x44236e8], 0x4
0x44056dd 56               PUSH ESI
0x44056de 8b7508           MOV ESI, [EBP+0x8]
0x44056e1 742e             JZ 0x4405711
0x44056e3 e890590100       CALL 0x441b078

************************************************************************
Hook mode: Usermode
Hook type: Inline/Trampoline
Process: 2072 (explorer.exe)
Victim module: USER32.dll (0x76f40000 - 0x77009000)
Function: USER32.dll!ReleaseCapture at 0x76f769f2
Hook address: 0x440d963
Hooking module: <unknown>

Disassembly(0):
0x76f769f2 e96c6f498d       JMP 0x440d963
0x76f769f7 fe               DB 0xfe
0x76f769f8 ffc3             INC EBX
0x76f769fa 90               NOP
0x76f769fb 90               NOP
0x76f769fc 90               NOP
0x76f769fd 90               NOP
0x76f769fe 90               NOP
0x76f769ff 8bff             MOV EDI, EDI
0x76f76a01 55               PUSH EBP
0x76f76a02 8bec             MOV EBP, ESP
0x76f76a04 6a30             PUSH 0x30
0x76f76a06 ff7508           PUSH DWORD [EBP+0x8]
0x76f76a09 e8               DB 0xe8

Disassembly(1):
0x440d963 f605e836420404   TEST BYTE [0x44236e8], 0x4
0x440d96a 7441             JZ 0x440d9ad
0x440d96c e807d70000       CALL 0x441b078
0x440d971 84c0             TEST AL, AL
0x440d973 7438             JZ 0x440d9ad
0x440d975 ff1574124004     CALL DWORD [0x4401274]

************************************************************************
Hook mode: Usermode
Hook type: Inline/Trampoline
Process: 2072 (explorer.exe)
Victim module: USER32.dll (0x76f40000 - 0x77009000)
Function: USER32.dll!ReleaseDC at 0x76f55421
Hook address: 0x4410990
Hooking module: <unknown>

Disassembly(0):
0x76f55421 e96ab54b8d       JMP 0x4410990
0x76f55426 837d0c00         CMP DWORD [EBP+0xc], 0x0
0x76f5542a 0f846b380200     JZ 0x76f78c9b
0x76f55430 ff750c           PUSH DWORD [EBP+0xc]
0x76f55433 ff152013f476     CALL DWORD [0x76f41320]

Disassembly(1):
0x4410990 f605e836420404   TEST BYTE [0x44236e8], 0x4
0x4410997 56               PUSH ESI
0x4410998 8b74240c         MOV ESI, [ESP+0xc]
0x441099c 7423             JZ 0x44109c1
0x441099e e8d5a60000       CALL 0x441b078
0x44109a3 84c0             TEST AL, AL
0x44109a5 741a             JZ 0x44109c1
0x44109a7 ff               DB 0xff

************************************************************************
Hook mode: Usermode
Hook type: Inline/Trampoline
Process: 2072 (explorer.exe)
Victim module: USER32.dll (0x76f40000 - 0x77009000)
Function: USER32.dll!SetCapture at 0x76f76932
Hook address: 0x440d909
Hooking module: <unknown>

Disassembly(0):
0x76f76932 e9d26f498d       JMP 0x440d909
0x76f76937 ba0003fe7f       MOV EDX, 0x7ffe0300
0x76f7693c ff12             CALL DWORD [EDX]
0x76f7693e c20400           RET 0x4
0x76f76941 90               NOP
0x76f76942 90               NOP
0x76f76943 90               NOP
0x76f76944 90               NOP
0x76f76945 90               NOP
0x76f76946 b8               DB 0xb8
0x76f76947 b211             MOV DL, 0x11
0x76f76949 00               DB 0x0

Disassembly(1):
0x440d909 f605e836420404   TEST BYTE [0x44236e8], 0x4
0x440d910 53               PUSH EBX
0x440d911 56               PUSH ESI
0x440d912 57               PUSH EDI
0x440d913 7445             JZ 0x440d95a
0x440d915 e85ed70000       CALL 0x441b078
0x440d91a 84c0             TEST AL, AL
0x440d91c 743c             JZ 0x440d95a
0x440d91e 8b               DB 0x8b
0x440d91f 5c               POP ESP
0x440d920 24               DB 0x24

************************************************************************
Hook mode: Usermode
Hook type: Inline/Trampoline
Process: 2072 (explorer.exe)
Victim module: USER32.dll (0x76f40000 - 0x77009000)
Function: USER32.dll!SetCursorPos at 0x76f8c1b0
Hook address: 0x440d8cc
Hooking module: <unknown>

Disassembly(0):
0x76f8c1b0 e91717488d       JMP 0x440d8cc
0x76f8c1b5 6a74             PUSH 0x74
0x76f8c1b7 ff750c           PUSH DWORD [EBP+0xc]
0x76f8c1ba ff7508           PUSH DWORD [EBP+0x8]
0x76f8c1bd e80a1afcff       CALL 0x76f4dbcc
0x76f8c1c2 5d               POP EBP
0x76f8c1c3 c20800           RET 0x8
0x76f8c1c6 90               NOP
0x76f8c1c7 90               NOP

Disassembly(1):
0x440d8cc f605e836420404   TEST BYTE [0x44236e8], 0x4
0x440d8d3 742e             JZ 0x440d903
0x440d8d5 e89ed70000       CALL 0x441b078
0x440d8da 84c0             TEST AL, AL
0x440d8dc 7425             JZ 0x440d903
0x440d8de a1b8234204       MOV EAX, [0x44223b8]
0x440d8e3 8b               DB 0x8b

************************************************************************
Hook mode: Usermode
Hook type: Inline/Trampoline
Process: 2072 (explorer.exe)
Victim module: USER32.dll (0x76f40000 - 0x77009000)
Function: USER32.dll!SwitchDesktop at 0x76f4476b
Hook address: 0x44053ae
Hooking module: <unknown>

Disassembly(0):
0x76f4476b e93e0c4c8d       JMP 0x44053ae
0x76f44770 6a00             PUSH 0x0
0x76f44772 ff7508           PUSH DWORD [EBP+0x8]
0x76f44775 e8a2020000       CALL 0x76f44a1c
0x76f4477a 5d               POP EBP
0x76f4477b c20400           RET 0x4
0x76f4477e 33c0             XOR EAX, EAX
0x76f44780 e9               DB 0xe9
0x76f44781 3a               DB 0x3a
0x76f44782 73               DB 0x73

Disassembly(1):
0x44053ae f605e836420404   TEST BYTE [0x44236e8], 0x4
0x44053b5 740f             JZ 0x44053c6
0x44053b7 e8bc5c0100       CALL 0x441b078
0x44053bc 84c0             TEST AL, AL
0x44053be 7406             JZ 0x44053c6
0x44053c0 33c0             XOR EAX, EAX
0x44053c2 40               INC EAX
0x44053c3 c20400           RET 0x4

************************************************************************
Hook mode: Usermode
Hook type: Inline/Trampoline
Process: 2072 (explorer.exe)
Victim module: USER32.dll (0x76f40000 - 0x77009000)
Function: USER32.dll!TranslateMessage at 0x76f564c7
Hook address: 0x440f91f
Hooking module: <unknown>

Disassembly(0):
0x76f564c7 e953944b8d       JMP 0x440f91f
0x76f564cc 56               PUSH ESI
0x76f564cd 8b7508           MOV ESI, [EBP+0x8]
0x76f564d0 b8e5000000       MOV EAX, 0xe5
0x76f564d5 66394608         CMP [ESI+0x8], AX
0x76f564d9 0f84e4dc0200     JZ 0x76f841c3

Disassembly(1):
0x440f91f 55               PUSH EBP
0x440f920 8bec             MOV EBP, ESP
0x440f922 83e4f8           AND ESP, -0x8
0x440f925 81ec74030000     SUB ESP, 0x374
0x440f92b 53               PUSH EBX
0x440f92c 8b5d08           MOV EBX, [EBP+0x8]
0x440f92f 56               PUSH ESI
0x440f930 57               PUSH EDI
0x440f931 85db             TEST EBX, EBX
0x440f933 0f               DB 0xf
0x440f934 843c01           TEST [ECX+EAX], BH

************************************************************************
Hook mode: Usermode
Hook type: Inline/Trampoline
Process: 2072 (explorer.exe)
Victim module: CRYPT32.dll (0x754d0000 - 0x755ed000)
Function: CRYPT32.dll!PFXImportCertStore at 0x75560ddc
Hook address: 0x441c8ed
Hooking module: <unknown>

Disassembly(0):
0x75560ddc e90cbbeb8e       JMP 0x441c8ed
0x75560de1 81ec84000000     SUB ESP, 0x84
0x75560de7 a108535875       MOV EAX, [0x75585308]
0x75560dec 33c5             XOR EAX, EBP
0x75560dee 8945fc           MOV [EBP-0x4], EAX
0x75560df1 53               PUSH EBX
0x75560df2 8b               DB 0x8b
0x75560df3 5d               POP EBP

Disassembly(1):
0x441c8ed 55               PUSH EBP
0x441c8ee 8bec             MOV EBP, ESP
0x441c8f0 83e4f8           AND ESP, -0x8
0x441c8f3 81ecfc020000     SUB ESP, 0x2fc
0x441c8f9 53               PUSH EBX
0x441c8fa 8b5d08           MOV EBX, [EBP+0x8]
0x441c8fd 56               PUSH ESI
0x441c8fe 57               PUSH EDI
0x441c8ff ff7510           PUSH DWORD [EBP+0x10]
0x441c902 ff750c           PUSH DWORD [EBP+0xc]

************************************************************************
Hook mode: Usermode
Hook type: Inline/Trampoline
Process: 2072 (explorer.exe)
Victim module: WININET.dll (0x760b0000 - 0x761a5000)
Function: WININET.dll!HttpQueryInfoA at 0x760ca33e
Hook address: 0x441a4ad
Hooking module: <unknown>

Disassembly(0):
0x760ca33e e96a01358e       JMP 0x441a4ad
0x760ca343 83ec6c           SUB ESP, 0x6c
0x760ca346 a1a0931676       MOV EAX, [0x761693a0]
0x760ca34b 33c5             XOR EAX, EBP
0x760ca34d 8945fc           MOV [EBP-0x4], EAX
0x760ca350 8b4510           MOV EAX, [EBP+0x10]
0x760ca353 8945d8           MOV [EBP-0x28], EAX

Disassembly(1):
0x441a4ad 55               PUSH EBP
0x441a4ae 8bec             MOV EBP, ESP
0x441a4b0 e8c30b0000       CALL 0x441b078
0x441a4b5 84c0             TEST AL, AL
0x441a4b7 7441             JZ 0x441a4fa
0x441a4b9 56               PUSH ESI
0x441a4ba 57               PUSH EDI
0x441a4bb bfb0354204       MOV EDI, 0x44235b0
0x441a4c0 57               PUSH EDI
0x441a4c1 ff               DB 0xff
0x441a4c2 15               DB 0x15
0x441a4c3 4c               DEC ESP
0x441a4c4 12               DB 0x12

************************************************************************
Hook mode: Usermode
Hook type: Inline/Trampoline
Process: 2072 (explorer.exe)
Victim module: WININET.dll (0x760b0000 - 0x761a5000)
Function: WININET.dll!HttpSendRequestA at 0x761418f8
Hook address: 0x441a229
Hooking module: <unknown>

Disassembly(0):
0x761418f8 e92c892d8e       JMP 0x441a229
0x761418fd 83ec38           SUB ESP, 0x38
0x76141900 56               PUSH ESI
0x76141901 6a38             PUSH 0x38
0x76141903 8d45c8           LEA EAX, [EBP-0x38]
0x76141906 6a00             PUSH 0x0
0x76141908 50               PUSH EAX
0x76141909 e80d00f7ff       CALL 0x760b191b
0x7614190e 83               DB 0x83
0x7614190f c4               DB 0xc4

Disassembly(1):
0x441a229 55               PUSH EBP
0x441a22a 8bec             MOV EBP, ESP
0x441a22c e8470e0000       CALL 0x441b078
0x441a231 84c0             TEST AL, AL
0x441a233 743d             JZ 0x441a272
0x441a235 837d1000         CMP DWORD [EBP+0x10], 0x0
0x441a239 7422             JZ 0x441a25d
0x441a23b 837d0c00         CMP DWORD [EBP+0xc], 0x0
0x441a23f 741c             JZ 0x441a25d

************************************************************************
Hook mode: Usermode
Hook type: Inline/Trampoline
Process: 2072 (explorer.exe)
Victim module: WININET.dll (0x760b0000 - 0x761a5000)
Function: WININET.dll!HttpSendRequestExA at 0x76141812
Hook address: 0x441a319
Hooking module: <unknown>

Disassembly(0):
0x76141812 e9028b2d8e       JMP 0x441a319
0x76141817 83ec40           SUB ESP, 0x40
0x7614181a 53               PUSH EBX
0x7614181b 56               PUSH ESI
0x7614181c 57               PUSH EDI
0x7614181d 6a38             PUSH 0x38
0x7614181f 33f6             XOR ESI, ESI
0x76141821 8d45c0           LEA EAX, [EBP-0x40]
0x76141824 56               PUSH ESI
0x76141825 50               PUSH EAX
0x76141826 33ff             XOR EDI, EDI
0x76141828 33db             XOR EBX, EBX

Disassembly(1):
0x441a319 55               PUSH EBP
0x441a31a 8bec             MOV EBP, ESP
0x441a31c 83e4f8           AND ESP, -0x8
0x441a31f 83ec2c           SUB ESP, 0x2c
0x441a322 56               PUSH ESI
0x441a323 e8500d0000       CALL 0x441b078
0x441a328 84c0             TEST AL, AL
0x441a32a 746c             JZ 0x441a398
0x441a32c 33f6             XOR ESI, ESI
0x441a32e 6a28             PUSH 0x28
0x441a330 8d               DB 0x8d

************************************************************************
Hook mode: Usermode
Hook type: Inline/Trampoline
Process: 2072 (explorer.exe)
Victim module: WININET.dll (0x760b0000 - 0x761a5000)
Function: WININET.dll!HttpSendRequestExW at 0x760e4a3d
Hook address: 0x441a27d
Hooking module: <unknown>

Disassembly(0):
0x760e4a3d e93b58338e       JMP 0x441a27d
0x760e4a42 83ec4c           SUB ESP, 0x4c
0x760e4a45 53               PUSH EBX
0x760e4a46 57               PUSH EDI
0x760e4a47 33ff             XOR EDI, EDI
0x760e4a49 6a38             PUSH 0x38
0x760e4a4b 8d45b4           LEA EAX, [EBP-0x4c]
0x760e4a4e 57               PUSH EDI
0x760e4a4f 50               PUSH EAX
0x760e4a50 897dfc           MOV [EBP-0x4], EDI
0x760e4a53 89               DB 0x89
0x760e4a54 7d               DB 0x7d

Disassembly(1):
0x441a27d 55               PUSH EBP
0x441a27e 8bec             MOV EBP, ESP
0x441a280 83e4f8           AND ESP, -0x8
0x441a283 83ec2c           SUB ESP, 0x2c
0x441a286 56               PUSH ESI
0x441a287 e8ec0d0000       CALL 0x441b078
0x441a28c 84c0             TEST AL, AL
0x441a28e 746c             JZ 0x441a2fc
0x441a290 33f6             XOR ESI, ESI
0x441a292 6a28             PUSH 0x28
0x441a294 8d               DB 0x8d

************************************************************************
Hook mode: Usermode
Hook type: Inline/Trampoline
Process: 2072 (explorer.exe)
Victim module: WININET.dll (0x760b0000 - 0x761a5000)
Function: WININET.dll!HttpSendRequestW at 0x760dba12
Hook address: 0x441a1d5
Hooking module: <unknown>

Disassembly(0):
0x760dba12 e9bee7338e       JMP 0x441a1d5
0x760dba17 83ec40           SUB ESP, 0x40
0x760dba1a 53               PUSH EBX
0x760dba1b 56               PUSH ESI
0x760dba1c 57               PUSH EDI
0x760dba1d 33f6             XOR ESI, ESI
0x760dba1f 6a38             PUSH 0x38
0x760dba21 8d45c0           LEA EAX, [EBP-0x40]
0x760dba24 56               PUSH ESI
0x760dba25 50               PUSH EAX
0x760dba26 33ff             XOR EDI, EDI
0x760dba28 33db             XOR EBX, EBX

Disassembly(1):
0x441a1d5 55               PUSH EBP
0x441a1d6 8bec             MOV EBP, ESP
0x441a1d8 e89b0e0000       CALL 0x441b078
0x441a1dd 84c0             TEST AL, AL
0x441a1df 743d             JZ 0x441a21e
0x441a1e1 837d1000         CMP DWORD [EBP+0x10], 0x0
0x441a1e5 7422             JZ 0x441a209
0x441a1e7 837d0c00         CMP DWORD [EBP+0xc], 0x0
0x441a1eb 741c             JZ 0x441a209

************************************************************************
Hook mode: Usermode
Hook type: Inline/Trampoline
Process: 2072 (explorer.exe)
Victim module: WININET.dll (0x760b0000 - 0x761a5000)
Function: WININET.dll!InternetCloseHandle at 0x760cab49
Hook address: 0x441a3b5
Hooking module: <unknown>

Disassembly(0):
0x760cab49 e967f8348e       JMP 0x441a3b5
0x760cab4e 83ec38           SUB ESP, 0x38
0x760cab51 56               PUSH ESI
0x760cab52 6a38             PUSH 0x38
0x760cab54 8d45c8           LEA EAX, [EBP-0x38]
0x760cab57 6a00             PUSH 0x0
0x760cab59 50               PUSH EAX
0x760cab5a e8bc6dfeff       CALL 0x760b191b
0x760cab5f 83               DB 0x83
0x760cab60 c4               DB 0xc4

Disassembly(1):
0x441a3b5 53               PUSH EBX
0x441a3b6 56               PUSH ESI
0x441a3b7 8b74240c         MOV ESI, [ESP+0xc]
0x441a3bb 56               PUSH ESI
0x441a3bc ff1500154004     CALL DWORD [0x4401500]
0x441a3c2 8bd8             MOV EBX, EAX
0x441a3c4 e8af0c0000       CALL 0x441b078
0x441a3c9 84c0             TEST AL, AL
0x441a3cb 7424             JZ 0x441a3f1

************************************************************************
Hook mode: Usermode
Hook type: Inline/Trampoline
Process: 2072 (explorer.exe)
Victim module: WININET.dll (0x760b0000 - 0x761a5000)
Function: WININET.dll!InternetQueryDataAvailable at 0x760d5e5d
Hook address: 0x441a481
Hooking module: <unknown>

Disassembly(0):
0x760d5e5d e91f46348e       JMP 0x441a481
0x760d5e62 83ec64           SUB ESP, 0x64
0x760d5e65 a1a0931676       MOV EAX, [0x761693a0]
0x760d5e6a 33c5             XOR EAX, EBP
0x760d5e6c 8945fc           MOV [EBP-0x4], EAX
0x760d5e6f 8b450c           MOV EAX, [EBP+0xc]
0x760d5e72 53               PUSH EBX
0x760d5e73 8b               DB 0x8b
0x760d5e74 5d               POP EBP

Disassembly(1):
0x441a481 55               PUSH EBP
0x441a482 8bec             MOV EBP, ESP
0x441a484 e8ef0b0000       CALL 0x441b078
0x441a489 84c0             TEST AL, AL
0x441a48b 7415             JZ 0x441a4a2
0x441a48d ff750c           PUSH DWORD [EBP+0xc]
0x441a490 8d4508           LEA EAX, [EBP+0x8]
0x441a493 6a00             PUSH 0x0
0x441a495 6a00             PUSH 0x0
0x441a497 50               PUSH EAX
0x441a498 e8               DB 0xe8

************************************************************************
Hook mode: Usermode
Hook type: Inline/Trampoline
Process: 2072 (explorer.exe)
Victim module: WININET.dll (0x760b0000 - 0x761a5000)
Function: WININET.dll!InternetReadFile at 0x760cb406
Hook address: 0x441a3f8
Hooking module: <unknown>

Disassembly(0):
0x760cb406 e9edef348e       JMP 0x441a3f8
0x760cb40b 83ec38           SUB ESP, 0x38
0x760cb40e 56               PUSH ESI
0x760cb40f 6a38             PUSH 0x38
0x760cb411 8d45c8           LEA EAX, [EBP-0x38]
0x760cb414 6a00             PUSH 0x0
0x760cb416 50               PUSH EAX
0x760cb417 e8ff64feff       CALL 0x760b191b
0x760cb41c 83               DB 0x83
0x760cb41d c4               DB 0xc4

Disassembly(1):
0x441a3f8 55               PUSH EBP
0x441a3f9 8bec             MOV EBP, ESP
0x441a3fb e8780c0000       CALL 0x441b078
0x441a400 84c0             TEST AL, AL
0x441a402 7428             JZ 0x441a42c
0x441a404 33c0             XOR EAX, EAX
0x441a406 39450c           CMP [EBP+0xc], EAX
0x441a409 7421             JZ 0x441a42c
0x441a40b 394510           CMP [EBP+0x10], EAX
0x441a40e 761c             JBE 0x441a42c

************************************************************************
Hook mode: Usermode
Hook type: Inline/Trampoline
Process: 2072 (explorer.exe)
Victim module: WININET.dll (0x760b0000 - 0x761a5000)
Function: WININET.dll!InternetReadFileExA at 0x760fae46
Hook address: 0x441a437
Hooking module: <unknown>

Disassembly(0):
0x760fae46 e9ecf5318e       JMP 0x441a437
0x760fae4b 83ec78           SUB ESP, 0x78
0x760fae4e a1a0931676       MOV EAX, [0x761693a0]
0x760fae53 33c5             XOR EAX, EBP
0x760fae55 8945fc           MOV [EBP-0x4], EAX
0x760fae58 8b4508           MOV EAX, [EBP+0x8]
0x760fae5b 53               PUSH EBX
0x760fae5c 56               PUSH ESI
0x760fae5d 8b               DB 0x8b

Disassembly(1):
0x441a437 55               PUSH EBP
0x441a438 8bec             MOV EBP, ESP
0x441a43a 56               PUSH ESI
0x441a43b e8380c0000       CALL 0x441b078
0x441a440 8b750c           MOV ESI, [EBP+0xc]
0x441a443 84c0             TEST AL, AL
0x441a445 7425             JZ 0x441a46c
0x441a447 85f6             TEST ESI, ESI
0x441a449 7421             JZ 0x441a46c
0x441a44b 8b5614           MOV EDX, [ESI+0x14]
0x441a44e 85               DB 0x85

************************************************************************
Hook mode: Usermode
Hook type: Inline/Trampoline
Process: 2072 (explorer.exe)
Victim module: WS2_32.dll (0x75ad0000 - 0x75b05000)
Function: WS2_32.dll!WSASend at 0x75ad4406
Hook address: 0x440ff16
Hooking module: <unknown>

Disassembly(0):
0x75ad4406 e90bbb938e       JMP 0x440ff16
0x75ad440b 51               PUSH ECX
0x75ad440c 51               PUSH ECX
0x75ad440d 813d4870af75292ead75 CMP DWORD [0x75af7048], 0x75ad2e29
0x75ad4417 56               PUSH ESI
0x75ad4418 0f85ca010000     JNZ 0x75ad45e8

Disassembly(1):
0x440ff16 55               PUSH EBP
0x440ff17 8bec             MOV EBP, ESP
0x440ff19 83e4f8           AND ESP, -0x8
0x440ff1c 56               PUSH ESI
0x440ff1d 57               PUSH EDI
0x440ff1e e855b10000       CALL 0x441b078
0x440ff23 8b750c           MOV ESI, [EBP+0xc]
0x440ff26 84c0             TEST AL, AL
0x440ff28 7419             JZ 0x440ff43
0x440ff2a 837d1000         CMP DWORD [EBP+0x10], 0x0

************************************************************************
Hook mode: Usermode
Hook type: Inline/Trampoline
Process: 2072 (explorer.exe)
Victim module: WS2_32.dll (0x75ad0000 - 0x75b05000)
Function: WS2_32.dll!closesocket at 0x75ad3918
Hook address: 0x440febd
Hooking module: <unknown>

Disassembly(0):
0x75ad3918 e9a0c5938e       JMP 0x440febd
0x75ad391d 51               PUSH ECX
0x75ad391e 53               PUSH EBX
0x75ad391f 56               PUSH ESI
0x75ad3920 be292ead75       MOV ESI, 0x75ad2e29
0x75ad3925 33db             XOR EBX, EBX
0x75ad3927 57               PUSH EDI
0x75ad3928 39354870af75     CMP [0x75af7048], ESI
0x75ad392e 0f               DB 0xf
0x75ad392f 85               DB 0x85

Disassembly(1):
0x440febd e8b6b10000       CALL 0x441b078
0x440fec2 84c0             TEST AL, AL
0x440fec4 7429             JZ 0x440feef
0x440fec6 56               PUSH ESI
0x440fec7 be68274204       MOV ESI, 0x4422768
0x440fecc 56               PUSH ESI
0x440fecd ff154c124004     CALL DWORD [0x440124c]
0x440fed3 ff               DB 0xff
0x440fed4 74               DB 0x74

************************************************************************
Hook mode: Usermode
Hook type: Inline/Trampoline
Process: 2072 (explorer.exe)
Victim module: WS2_32.dll (0x75ad0000 - 0x75b05000)
Function: WS2_32.dll!send at 0x75ad6f01
Hook address: 0x440fef5
Hooking module: <unknown>

Disassembly(0):
0x75ad6f01 e9ef8f938e       JMP 0x440fef5
0x75ad6f06 83ec10           SUB ESP, 0x10
0x75ad6f09 56               PUSH ESI
0x75ad6f0a 57               PUSH EDI
0x75ad6f0b 33ff             XOR EDI, EDI
0x75ad6f0d 813d4870af75292ead75 CMP DWORD [0x75af7048], 0x75ad2e29
0x75ad6f17 757b             JNZ 0x75ad6f94

Disassembly(1):
0x440fef5 55               PUSH EBP
0x440fef6 8bec             MOV EBP, ESP
0x440fef8 e87bb10000       CALL 0x441b078
0x440fefd 84c0             TEST AL, AL
0x440feff 740e             JZ 0x440ff0f
0x440ff01 ff7508           PUSH DWORD [EBP+0x8]
0x440ff04 8b4510           MOV EAX, [EBP+0x10]
0x440ff07 8b4d0c           MOV ECX, [EBP+0xc]
0x440ff0a e8               DB 0xe8
0x440ff0b 35               DB 0x35
0x440ff0c fd               STD

************************************************************************
Hook mode: Usermode
Hook type: Inline/Trampoline
Process: 2220 (vmtoolsd.exe)
Victim module: ntdll.dll (0x771a0000 - 0x772dc000)
Function: ntdll.dll!LdrLoadDll at 0x772022b8
Hook address: 0x20f5a6e
Hooking module: <unknown>

Disassembly(0):
0x772022b8 e9b137ef8a       JMP 0x20f5a6e
0x772022bd 51               PUSH ECX
0x772022be 51               PUSH ECX
0x772022bf a158751f77       MOV EAX, [0x771f7558]
0x772022c4 53               PUSH EBX
0x772022c5 56               PUSH ESI
0x772022c6 8b7508           MOV ESI, [EBP+0x8]
0x772022c9 83c801           OR EAX, 0x1
0x772022cc 57               PUSH EDI
0x772022cd bb               DB 0xbb
0x772022ce a2               DB 0xa2
0x772022cf 7e               DB 0x7e

Disassembly(1):
0x20f5a6e 55               PUSH EBP
0x20f5a6f 8bec             MOV EBP, ESP
0x20f5a71 e802560100       CALL 0x210b078
0x20f5a76 84c0             TEST AL, AL
0x20f5a78 7507             JNZ 0x20f5a81
0x20f5a7a 5d               POP EBP
0x20f5a7b ff2520371102     JMP DWORD [0x2113720]
0x20f5a81 53               PUSH EBX
0x20f5a82 56               PUSH ESI
0x20f5a83 8b7514           MOV ESI, [EBP+0x14]

************************************************************************
Hook mode: Usermode
Hook type: Inline/Trampoline
Process: 2220 (vmtoolsd.exe)
Victim module: ntdll.dll (0x771a0000 - 0x772dc000)
Function: ntdll.dll!NtCreateUserProcess at 0x771e5778
Hook address: 0x20f5945
Hooking module: <unknown>

Disassembly(0):
0x771e5778 e9c801f18a       JMP 0x20f5945
0x771e577d ba0003fe7f       MOV EDX, 0x7ffe0300
0x771e5782 ff12             CALL DWORD [EDX]
0x771e5784 c22c00           RET 0x2c
0x771e5787 90               NOP
0x771e5788 b85e000000       MOV EAX, 0x5e
0x771e578d ba               DB 0xba
0x771e578e 0003             ADD [EBX], AL

Disassembly(1):
0x20f5945 55               PUSH EBP
0x20f5946 8bec             MOV EBP, ESP
0x20f5948 81eccc020000     SUB ESP, 0x2cc
0x20f594e 53               PUSH EBX
0x20f594f ff7530           PUSH DWORD [EBP+0x30]
0x20f5952 8b5d08           MOV EBX, [EBP+0x8]
0x20f5955 ff752c           PUSH DWORD [EBP+0x2c]
0x20f5958 ff7528           PUSH DWORD [EBP+0x28]
0x20f595b ff               DB 0xff
0x20f595c 75               DB 0x75

************************************************************************
Hook mode: Usermode
Hook type: Inline/Trampoline
Process: 2220 (vmtoolsd.exe)
Victim module: ntdll.dll (0x771a0000 - 0x772dc000)
Function: ntdll.dll!ZwCreateUserProcess at 0x771e5778
Hook address: 0x20f5945
Hooking module: <unknown>

Disassembly(0):
0x771e5778 e9c801f18a       JMP 0x20f5945
0x771e577d ba0003fe7f       MOV EDX, 0x7ffe0300
0x771e5782 ff12             CALL DWORD [EDX]
0x771e5784 c22c00           RET 0x2c
0x771e5787 90               NOP
0x771e5788 b85e000000       MOV EAX, 0x5e
0x771e578d ba               DB 0xba
0x771e578e 0003             ADD [EBX], AL

Disassembly(1):
0x20f5945 55               PUSH EBP
0x20f5946 8bec             MOV EBP, ESP
0x20f5948 81eccc020000     SUB ESP, 0x2cc
0x20f594e 53               PUSH EBX
0x20f594f ff7530           PUSH DWORD [EBP+0x30]
0x20f5952 8b5d08           MOV EBX, [EBP+0x8]
0x20f5955 ff752c           PUSH DWORD [EBP+0x2c]
0x20f5958 ff7528           PUSH DWORD [EBP+0x28]
0x20f595b ff               DB 0xff
0x20f595c 75               DB 0x75

************************************************************************
Hook mode: Usermode
Hook type: Inline/Trampoline
Process: 2220 (vmtoolsd.exe)
Victim module: kernel32.dll (0x75960000 - 0x75a34000)
Function: kernel32.dll!GetFileAttributesExW at 0x759a273d
Hook address: 0x20f5b0e
Hooking module: <unknown>

Disassembly(0):
0x759a273d e9cc33758c       JMP 0x20f5b0e
0x759a2742 5d               POP EBP
0x759a2743 eb05             JMP 0x759a274a
0x759a2745 90               NOP
0x759a2746 90               NOP
0x759a2747 90               NOP
0x759a2748 90               NOP
0x759a2749 90               NOP
0x759a274a ff25341a9675     JMP DWORD [0x75961a34]
0x759a2750 33c9             XOR ECX, ECX
0x759a2752 39               DB 0x39
0x759a2753 8d               DB 0x8d
0x759a2754 60               PUSHA

Disassembly(1):
0x20f5b0e 55               PUSH EBP
0x20f5b0f 8bec             MOV EBP, ESP
0x20f5b11 817d0c6063f188   CMP DWORD [EBP+0xc], 0x88f16360
0x20f5b18 57               PUSH EDI
0x20f5b19 7551             JNZ 0x20f5b6c
0x20f5b1b 837d0800         CMP DWORD [EBP+0x8], 0x0
0x20f5b1f 744b             JZ 0x20f5b6c
0x20f5b21 e852550100       CALL 0x210b078

************************************************************************
Hook mode: Usermode
Hook type: Inline/Trampoline
Process: 2220 (vmtoolsd.exe)
Victim module: USER32.dll (0x76f40000 - 0x77009000)
Function: USER32.dll!BeginPaint at 0x76f55d14
Hook address: 0x2100807
Hooking module: <unknown>

Disassembly(0):
0x76f55d14 e9eeaa1a8b       JMP 0x2100807
0x76f55d19 ba0003fe7f       MOV EDX, 0x7ffe0300
0x76f55d1e ff12             CALL DWORD [EDX]
0x76f55d20 c20800           RET 0x8
0x76f55d23 837d0c00         CMP DWORD [EBP+0xc], 0x0
0x76f55d27 0f               DB 0xf
0x76f55d28 853e             TEST [ESI], EDI
0x76f55d2a a801             TEST AL, 0x1

Disassembly(1):
0x2100807 f605e836110204   TEST BYTE [0x21136e8], 0x4
0x210080e 56               PUSH ESI
0x210080f 8b74240c         MOV ESI, [ESP+0xc]
0x2100813 57               PUSH EDI
0x2100814 8b7c240c         MOV EDI, [ESP+0xc]
0x2100818 7450             JZ 0x210086a
0x210081a e859a80000       CALL 0x210b078

************************************************************************
Hook mode: Usermode
Hook type: Inline/Trampoline
Process: 2220 (vmtoolsd.exe)
Victim module: USER32.dll (0x76f40000 - 0x77009000)
Function: USER32.dll!CallWindowProcA at 0x76f72bd3
Hook address: 0x20f564b
Hooking module: <unknown>

Disassembly(0):
0x76f72bd3 e9732a188b       JMP 0x20f564b
0x76f72bd8 6a01             PUSH 0x1
0x76f72bda ff7518           PUSH DWORD [EBP+0x18]
0x76f72bdd ff7514           PUSH DWORD [EBP+0x14]
0x76f72be0 ff7510           PUSH DWORD [EBP+0x10]
0x76f72be3 ff750c           PUSH DWORD [EBP+0xc]
0x76f72be6 ff7508           PUSH DWORD [EBP+0x8]
0x76f72be9 e8               DB 0xe8
0x76f72bea f2               DB 0xf2

Disassembly(1):
0x20f564b 55               PUSH EBP
0x20f564c 8bec             MOV EBP, ESP
0x20f564e f605e836110204   TEST BYTE [0x21136e8], 0x4
0x20f5655 56               PUSH ESI
0x20f5656 8b7510           MOV ESI, [EBP+0x10]
0x20f5659 7421             JZ 0x20f567c
0x20f565b e8185a0100       CALL 0x210b078
0x20f5660 84c0             TEST AL, AL
0x20f5662 74               DB 0x74

************************************************************************
Hook mode: Usermode
Hook type: Inline/Trampoline
Process: 2220 (vmtoolsd.exe)
Victim module: USER32.dll (0x76f40000 - 0x77009000)
Function: USER32.dll!CallWindowProcW at 0x76f51b3c
Hook address: 0x20f5602
Hooking module: <unknown>

Disassembly(0):
0x76f51b3c e9c13a1a8b       JMP 0x20f5602
0x76f51b41 6a00             PUSH 0x0
0x76f51b43 ff7518           PUSH DWORD [EBP+0x18]
0x76f51b46 ff7514           PUSH DWORD [EBP+0x14]
0x76f51b49 ff7510           PUSH DWORD [EBP+0x10]
0x76f51b4c ff750c           PUSH DWORD [EBP+0xc]
0x76f51b4f ff7508           PUSH DWORD [EBP+0x8]
0x76f51b52 e8               DB 0xe8
0x76f51b53 89               DB 0x89

Disassembly(1):
0x20f5602 55               PUSH EBP
0x20f5603 8bec             MOV EBP, ESP
0x20f5605 f605e836110204   TEST BYTE [0x21136e8], 0x4
0x20f560c 56               PUSH ESI
0x20f560d 8b7510           MOV ESI, [EBP+0x10]
0x20f5610 7421             JZ 0x20f5633
0x20f5612 e8615a0100       CALL 0x210b078
0x20f5617 84c0             TEST AL, AL
0x20f5619 74               DB 0x74

************************************************************************
Hook mode: Usermode
Hook type: Inline/Trampoline
Process: 2220 (vmtoolsd.exe)
Victim module: USER32.dll (0x76f40000 - 0x77009000)
Function: USER32.dll!DefDlgProcA at 0x76f671e4
Hook address: 0x20f549e
Hooking module: <unknown>

Disassembly(0):
0x76f671e4 e9b5e2188b       JMP 0x20f549e
0x76f671e9 8b4d08           MOV ECX, [EBP+0x8]
0x76f671ec e81f53ffff       CALL 0x76f5c510
0x76f671f1 85c0             TEST EAX, EAX
0x76f671f3 7411             JZ 0x76f67206
0x76f671f5 6a01             PUSH 0x1
0x76f671f7 ff7514           PUSH DWORD [EBP+0x14]
0x76f671fa ff               DB 0xff
0x76f671fb 75               DB 0x75

Disassembly(1):
0x20f549e 55               PUSH EBP
0x20f549f 8bec             MOV EBP, ESP
0x20f54a1 f605e836110204   TEST BYTE [0x21136e8], 0x4
0x20f54a8 56               PUSH ESI
0x20f54a9 8b750c           MOV ESI, [EBP+0xc]
0x20f54ac 7421             JZ 0x20f54cf
0x20f54ae e8c55b0100       CALL 0x210b078
0x20f54b3 84c0             TEST AL, AL
0x20f54b5 74               DB 0x74

************************************************************************
Hook mode: Usermode
Hook type: Inline/Trampoline
Process: 2220 (vmtoolsd.exe)
Victim module: USER32.dll (0x76f40000 - 0x77009000)
Function: USER32.dll!DefDlgProcW at 0x76f75bc1
Hook address: 0x20f5458
Hooking module: <unknown>

Disassembly(0):
0x76f75bc1 e992f8178b       JMP 0x20f5458
0x76f75bc6 8b4d08           MOV ECX, [EBP+0x8]
0x76f75bc9 e84269feff       CALL 0x76f5c510
0x76f75bce 85c0             TEST EAX, EAX
0x76f75bd0 7411             JZ 0x76f75be3
0x76f75bd2 6a00             PUSH 0x0
0x76f75bd4 ff7514           PUSH DWORD [EBP+0x14]
0x76f75bd7 ff               DB 0xff
0x76f75bd8 75               DB 0x75

Disassembly(1):
0x20f5458 55               PUSH EBP
0x20f5459 8bec             MOV EBP, ESP
0x20f545b f605e836110204   TEST BYTE [0x21136e8], 0x4
0x20f5462 56               PUSH ESI
0x20f5463 8b750c           MOV ESI, [EBP+0xc]
0x20f5466 7421             JZ 0x20f5489
0x20f5468 e80b5c0100       CALL 0x210b078
0x20f546d 84c0             TEST AL, AL
0x20f546f 74               DB 0x74

************************************************************************
Hook mode: Usermode
Hook type: Inline/Trampoline
Process: 2220 (vmtoolsd.exe)
Victim module: USER32.dll (0x76f40000 - 0x77009000)
Function: USER32.dll!DefFrameProcA at 0x76f725b7
Hook address: 0x20f552d
Hooking module: <unknown>

Disassembly(0):
0x76f725b7 e9712f188b       JMP 0x20f552d
0x76f725bc 6a01             PUSH 0x1
0x76f725be ff7518           PUSH DWORD [EBP+0x18]
0x76f725c1 ff7514           PUSH DWORD [EBP+0x14]
0x76f725c4 ff7510           PUSH DWORD [EBP+0x10]
0x76f725c7 ff750c           PUSH DWORD [EBP+0xc]
0x76f725ca ff7508           PUSH DWORD [EBP+0x8]
0x76f725cd e8               DB 0xe8
0x76f725ce b9               DB 0xb9

Disassembly(1):
0x20f552d 55               PUSH EBP
0x20f552e 8bec             MOV EBP, ESP
0x20f5530 f605e836110204   TEST BYTE [0x21136e8], 0x4
0x20f5537 56               PUSH ESI
0x20f5538 8b7510           MOV ESI, [EBP+0x10]
0x20f553b 7421             JZ 0x20f555e
0x20f553d e8365b0100       CALL 0x210b078
0x20f5542 84c0             TEST AL, AL
0x20f5544 74               DB 0x74

************************************************************************
Hook mode: Usermode
Hook type: Inline/Trampoline
Process: 2220 (vmtoolsd.exe)
Victim module: USER32.dll (0x76f40000 - 0x77009000)
Function: USER32.dll!DefFrameProcW at 0x76f7152b
Hook address: 0x20f54e4
Hooking module: <unknown>

Disassembly(0):
0x76f7152b e9b43f188b       JMP 0x20f54e4
0x76f71530 6a00             PUSH 0x0
0x76f71532 ff7518           PUSH DWORD [EBP+0x18]
0x76f71535 ff7514           PUSH DWORD [EBP+0x14]
0x76f71538 ff7510           PUSH DWORD [EBP+0x10]
0x76f7153b ff750c           PUSH DWORD [EBP+0xc]
0x76f7153e ff7508           PUSH DWORD [EBP+0x8]
0x76f71541 e8               DB 0xe8
0x76f71542 45               INC EBP

Disassembly(1):
0x20f54e4 55               PUSH EBP
0x20f54e5 8bec             MOV EBP, ESP
0x20f54e7 f605e836110204   TEST BYTE [0x21136e8], 0x4
0x20f54ee 56               PUSH ESI
0x20f54ef 8b7510           MOV ESI, [EBP+0x10]
0x20f54f2 7421             JZ 0x20f5515
0x20f54f4 e87f5b0100       CALL 0x210b078
0x20f54f9 84c0             TEST AL, AL
0x20f54fb 74               DB 0x74

************************************************************************
Hook mode: Usermode
Hook type: Inline/Trampoline
Process: 2220 (vmtoolsd.exe)
Victim module: USER32.dll (0x76f40000 - 0x77009000)
Function: USER32.dll!DefMDIChildProcA at 0x76f725db
Hook address: 0x20f55bc
Hooking module: <unknown>

Disassembly(0):
0x76f725db e9dc2f188b       JMP 0x20f55bc
0x76f725e0 6a01             PUSH 0x1
0x76f725e2 ff7514           PUSH DWORD [EBP+0x14]
0x76f725e5 ff7510           PUSH DWORD [EBP+0x10]
0x76f725e8 ff750c           PUSH DWORD [EBP+0xc]
0x76f725eb ff7508           PUSH DWORD [EBP+0x8]
0x76f725ee e892f6ffff       CALL 0x76f71c85

Disassembly(1):
0x20f55bc 55               PUSH EBP
0x20f55bd 8bec             MOV EBP, ESP
0x20f55bf f605e836110204   TEST BYTE [0x21136e8], 0x4
0x20f55c6 56               PUSH ESI
0x20f55c7 8b750c           MOV ESI, [EBP+0xc]
0x20f55ca 7421             JZ 0x20f55ed
0x20f55cc e8a75a0100       CALL 0x210b078
0x20f55d1 84c0             TEST AL, AL
0x20f55d3 74               DB 0x74

************************************************************************
Hook mode: Usermode
Hook type: Inline/Trampoline
Process: 2220 (vmtoolsd.exe)
Victim module: USER32.dll (0x76f40000 - 0x77009000)
Function: USER32.dll!DefMDIChildProcW at 0x76f7150a
Hook address: 0x20f5576
Hooking module: <unknown>

Disassembly(0):
0x76f7150a e96740188b       JMP 0x20f5576
0x76f7150f 6a00             PUSH 0x0
0x76f71511 ff7514           PUSH DWORD [EBP+0x14]
0x76f71514 ff7510           PUSH DWORD [EBP+0x10]
0x76f71517 ff750c           PUSH DWORD [EBP+0xc]
0x76f7151a ff7508           PUSH DWORD [EBP+0x8]
0x76f7151d e863070000       CALL 0x76f71c85

Disassembly(1):
0x20f5576 55               PUSH EBP
0x20f5577 8bec             MOV EBP, ESP
0x20f5579 f605e836110204   TEST BYTE [0x21136e8], 0x4
0x20f5580 56               PUSH ESI
0x20f5581 8b750c           MOV ESI, [EBP+0xc]
0x20f5584 7421             JZ 0x20f55a7
0x20f5586 e8ed5a0100       CALL 0x210b078
0x20f558b 84c0             TEST AL, AL
0x20f558d 74               DB 0x74

************************************************************************
Hook mode: Usermode
Hook type: Inline/Trampoline
Process: 2220 (vmtoolsd.exe)
Victim module: USER32.dll (0x76f40000 - 0x77009000)
Function: USER32.dll!DefWindowProcA at 0x76f4bb1c
Hook address: 0x20f5412
Hooking module: <unknown>

Disassembly(0):
0x76f4bb1c e9f1981a8b       JMP 0x20f5412
0x76f4bb21 f4               HLT
0x76f4bb22 76e8             JBE 0x76f4bb0c
0x76f4bb24 f8               CLC
0x76f4bb25 0801             OR [ECX], AL
0x76f4bb27 00e8             ADD AL, CH
0x76f4bb29 830901           OR DWORD [ECX], 0x1
0x76f4bb2c 00833dd89afa     ADD [EBX-0x56527c3], AL
0x76f4bb32 7600             JBE 0x76f4bb34

Disassembly(1):
0x20f5412 55               PUSH EBP
0x20f5413 8bec             MOV EBP, ESP
0x20f5415 f605e836110204   TEST BYTE [0x21136e8], 0x4
0x20f541c 56               PUSH ESI
0x20f541d 8b750c           MOV ESI, [EBP+0xc]
0x20f5420 7421             JZ 0x20f5443
0x20f5422 e8515c0100       CALL 0x210b078
0x20f5427 84c0             TEST AL, AL
0x20f5429 74               DB 0x74

************************************************************************
Hook mode: Usermode
Hook type: Inline/Trampoline
Process: 2220 (vmtoolsd.exe)
Victim module: USER32.dll (0x76f40000 - 0x77009000)
Function: USER32.dll!DefWindowProcW at 0x76f5507d
Hook address: 0x20f53cc
Hooking module: <unknown>

Disassembly(0):
0x76f5507d e94a031a8b       JMP 0x20f53cc
0x76f55082 f5               CMC
0x76f55083 76e8             JBE 0x76f5506d
0x76f55085 97               XCHG EDI, EAX
0x76f55086 7300             JAE 0x76f55088
0x76f55088 00e8             ADD AL, CH
0x76f5508a 22740000         AND DH, [EAX+EAX+0x0]
0x76f5508e 833dd89afa7600   CMP DWORD [0x76fa9ad8], 0x0

Disassembly(1):
0x20f53cc 55               PUSH EBP
0x20f53cd 8bec             MOV EBP, ESP
0x20f53cf f605e836110204   TEST BYTE [0x21136e8], 0x4
0x20f53d6 56               PUSH ESI
0x20f53d7 8b750c           MOV ESI, [EBP+0xc]
0x20f53da 7421             JZ 0x20f53fd
0x20f53dc e8975c0100       CALL 0x210b078
0x20f53e1 84c0             TEST AL, AL
0x20f53e3 74               DB 0x74

************************************************************************
Hook mode: Usermode
Hook type: Inline/Trampoline
Process: 2220 (vmtoolsd.exe)
Victim module: USER32.dll (0x76f40000 - 0x77009000)
Function: USER32.dll!EndPaint at 0x76f55d42
Hook address: 0x2100877
Hooking module: <unknown>

Disassembly(0):
0x76f55d42 e930ab1a8b       JMP 0x2100877
0x76f55d47 ba0003fe7f       MOV EDX, 0x7ffe0300
0x76f55d4c ff12             CALL DWORD [EDX]
0x76f55d4e c20800           RET 0x8
0x76f55d51 90               NOP
0x76f55d52 90               NOP
0x76f55d53 90               NOP
0x76f55d54 90               NOP
0x76f55d55 90               NOP
0x76f55d56 8bff             MOV EDI, EDI
0x76f55d58 55               PUSH EBP
0x76f55d59 8b               DB 0x8b

Disassembly(1):
0x2100877 f605e836110204   TEST BYTE [0x21136e8], 0x4
0x210087e 56               PUSH ESI
0x210087f 8b742408         MOV ESI, [ESP+0x8]
0x2100883 7423             JZ 0x21008a8
0x2100885 e8eea70000       CALL 0x210b078
0x210088a 84c0             TEST AL, AL
0x210088c 741a             JZ 0x21008a8
0x210088e ff               DB 0xff

************************************************************************
Hook mode: Usermode
Hook type: Inline/Trampoline
Process: 2220 (vmtoolsd.exe)
Victim module: USER32.dll (0x76f40000 - 0x77009000)
Function: USER32.dll!GetCapture at 0x76f49dc7
Hook address: 0x20fd9b3
Hooking module: <unknown>

Disassembly(0):
0x76f49dc7 e9e73b1b8b       JMP 0x20fd9b3
0x76f49dcc 83b8080b000000   CMP DWORD [EAX+0xb08], 0x0
0x76f49dd3 0f8582c80200     JNZ 0x76f7665b
0x76f49dd9 33c0             XOR EAX, EAX
0x76f49ddb c3               RET
0x76f49ddc 3b5d0c           CMP EBX, [EBP+0xc]

Disassembly(1):
0x20fd9b3 f605e836110204   TEST BYTE [0x21136e8], 0x4
0x20fd9ba 56               PUSH ESI
0x20fd9bb 744b             JZ 0x20fda08
0x20fd9bd e8b6d60000       CALL 0x210b078
0x20fd9c2 84c0             TEST AL, AL
0x20fd9c4 7442             JZ 0x20fda08
0x20fd9c6 ff               DB 0xff
0x20fd9c7 15               DB 0x15
0x20fd9c8 7412             JZ 0x20fd9dc
0x20fd9ca 0f               DB 0xf

************************************************************************
Hook mode: Usermode
Hook type: Inline/Trampoline
Process: 2220 (vmtoolsd.exe)
Victim module: USER32.dll (0x76f40000 - 0x77009000)
Function: USER32.dll!GetClipboardData at 0x76f62ba7
Hook address: 0x20ffa85
Hooking module: <unknown>

Disassembly(0):
0x76f62ba7 e9d9ce198b       JMP 0x20ffa85
0x76f62bac 83ec2c           SUB ESP, 0x2c
0x76f62baf 57               PUSH EDI
0x76f62bb0 8d45d4           LEA EAX, [EBP-0x2c]
0x76f62bb3 50               PUSH EAX
0x76f62bb4 ff7508           PUSH DWORD [EBP+0x8]
0x76f62bb7 e8d7ffffff       CALL 0x76f62b93
0x76f62bbc 33ff             XOR EDI, EDI
0x76f62bbe 89               DB 0x89

Disassembly(1):
0x20ffa85 55               PUSH EBP
0x20ffa86 8bec             MOV EBP, ESP
0x20ffa88 56               PUSH ESI
0x20ffa89 8b7508           MOV ESI, [EBP+0x8]
0x20ffa8c 57               PUSH EDI
0x20ffa8d 56               PUSH ESI
0x20ffa8e ff1544140f02     CALL DWORD [0x20f1444]
0x20ffa94 8bf8             MOV EDI, EAX
0x20ffa96 897d08           MOV [EBP+0x8], EDI
0x20ffa99 e8               DB 0xe8
0x20ffa9a da               DB 0xda
0x20ffa9b b500             MOV CH, 0x0

************************************************************************
Hook mode: Usermode
Hook type: Inline/Trampoline
Process: 2220 (vmtoolsd.exe)
Victim module: USER32.dll (0x76f40000 - 0x77009000)
Function: USER32.dll!GetCursorPos at 0x76f4a4b3
Hook address: 0x20fd885
Hooking module: <unknown>

Disassembly(0):
0x76f4a4b3 e9cd331b8b       JMP 0x20fd885
0x76f4a4b8 6a69             PUSH 0x69
0x76f4a4ba 6a01             PUSH 0x1
0x76f4a4bc ff7508           PUSH DWORD [EBP+0x8]
0x76f4a4bf e808370000       CALL 0x76f4dbcc
0x76f4a4c4 5d               POP EBP
0x76f4a4c5 c20400           RET 0x4
0x76f4a4c8 90               NOP
0x76f4a4c9 90               NOP
0x76f4a4ca 90               NOP

Disassembly(1):
0x20fd885 f605e836110204   TEST BYTE [0x21136e8], 0x4
0x20fd88c 7438             JZ 0x20fd8c6
0x20fd88e e8e5d70000       CALL 0x210b078
0x20fd893 84c0             TEST AL, AL
0x20fd895 742f             JZ 0x20fd8c6
0x20fd897 8b442404         MOV EAX, [ESP+0x4]
0x20fd89b 85c0             TEST EAX, EAX

************************************************************************
Hook mode: Usermode
Hook type: Inline/Trampoline
Process: 2220 (vmtoolsd.exe)
Victim module: USER32.dll (0x76f40000 - 0x77009000)
Function: USER32.dll!GetDC at 0x76f5544c
Hook address: 0x2100912
Hooking module: <unknown>

Disassembly(0):
0x76f5544c e9c1b41a8b       JMP 0x2100912
0x76f55451 ba0003fe7f       MOV EDX, 0x7ffe0300
0x76f55456 ff12             CALL DWORD [EDX]
0x76f55458 c20400           RET 0x4
0x76f5545b 90               NOP
0x76f5545c 90               NOP
0x76f5545d 90               NOP
0x76f5545e 90               NOP
0x76f5545f 90               NOP
0x76f55460 8bff             MOV EDI, EDI
0x76f55462 55               PUSH EBP
0x76f55463 8b               DB 0x8b

Disassembly(1):
0x2100912 f605e836110204   TEST BYTE [0x21136e8], 0x4
0x2100919 56               PUSH ESI
0x210091a 8b742408         MOV ESI, [ESP+0x8]
0x210091e 7426             JZ 0x2100946
0x2100920 e853a70000       CALL 0x210b078
0x2100925 84c0             TEST AL, AL
0x2100927 741d             JZ 0x2100946
0x2100929 ff               DB 0xff

************************************************************************
Hook mode: Usermode
Hook type: Inline/Trampoline
Process: 2220 (vmtoolsd.exe)
Victim module: USER32.dll (0x76f40000 - 0x77009000)
Function: USER32.dll!GetDCEx at 0x76f52d57
Hook address: 0x21008b7
Hooking module: <unknown>

Disassembly(0):
0x76f52d57 e95bdb1a8b       JMP 0x21008b7
0x76f52d5c ba0003fe7f       MOV EDX, 0x7ffe0300
0x76f52d61 ff12             CALL DWORD [EDX]
0x76f52d63 c20c00           RET 0xc
0x76f52d66 85ff             TEST EDI, EDI
0x76f52d68 0f84200c0000     JZ 0x76f5398e
0x76f52d6e 85               DB 0x85

Disassembly(1):
0x21008b7 55               PUSH EBP
0x21008b8 8bec             MOV EBP, ESP
0x21008ba f605e836110204   TEST BYTE [0x21136e8], 0x4
0x21008c1 56               PUSH ESI
0x21008c2 57               PUSH EDI
0x21008c3 8b7d08           MOV EDI, [EBP+0x8]
0x21008c6 7437             JZ 0x21008ff
0x21008c8 e8aba70000       CALL 0x210b078
0x21008cd 84c0             TEST AL, AL

************************************************************************
Hook mode: Usermode
Hook type: Inline/Trampoline
Process: 2220 (vmtoolsd.exe)
Victim module: USER32.dll (0x76f40000 - 0x77009000)
Function: USER32.dll!GetMessageA at 0x76f51899
Hook address: 0x20fda7a
Hooking module: <unknown>

Disassembly(0):
0x76f51899 e9dcc11a8b       JMP 0x20fda7a
0x76f5189e 8b5510           MOV EDX, [EBP+0x10]
0x76f518a1 8b4d14           MOV ECX, [EBP+0x14]
0x76f518a4 56               PUSH ESI
0x76f518a5 8bf2             MOV ESI, EDX
0x76f518a7 0bf1             OR ESI, ECX
0x76f518a9 b80000feff       MOV EAX, 0xfffe0000
0x76f518ae 85f0             TEST EAX, ESI
0x76f518b0 0f               DB 0xf

Disassembly(1):
0x20fda7a 56               PUSH ESI
0x20fda7b 8b742408         MOV ESI, [ESP+0x8]
0x20fda7f 57               PUSH EDI
0x20fda80 ff742418         PUSH DWORD [ESP+0x18]
0x20fda84 ff742418         PUSH DWORD [ESP+0x18]
0x20fda88 ff742418         PUSH DWORD [ESP+0x18]
0x20fda8c 56               PUSH ESI
0x20fda8d ff               DB 0xff
0x20fda8e 15               DB 0x15
0x20fda8f 98               CWDE
0x20fda90 140f             ADC AL, 0xf

************************************************************************
Hook mode: Usermode
Hook type: Inline/Trampoline
Process: 2220 (vmtoolsd.exe)
Victim module: USER32.dll (0x76f40000 - 0x77009000)
Function: USER32.dll!GetMessagePos at 0x76f76703
Hook address: 0x20fd853
Hooking module: <unknown>

Disassembly(0):
0x76f76703 e94b71188b       JMP 0x20fd853
0x76f76708 fe               DB 0xfe
0x76f76709 ffc3             INC EBX
0x76f7670b 83650c00         AND DWORD [EBP+0xc], 0x0
0x76f7670f e9a1f0fdff       JMP 0x76f557b5
0x76f76714 8b430c           MOV EAX, [EBX+0xc]
0x76f76717 3bc2             CMP EAX, EDX
0x76f76719 0f               DB 0xf
0x76f7671a 85               DB 0x85

Disassembly(1):
0x20fd853 f605e836110204   TEST BYTE [0x21136e8], 0x4
0x20fd85a 7423             JZ 0x20fd87f
0x20fd85c e817d80000       CALL 0x210b078
0x20fd861 84c0             TEST AL, AL
0x20fd863 741a             JZ 0x20fd87f
0x20fd865 8b0db8231102     MOV ECX, [0x21123b8]

************************************************************************
Hook mode: Usermode
Hook type: Inline/Trampoline
Process: 2220 (vmtoolsd.exe)
Victim module: USER32.dll (0x76f40000 - 0x77009000)
Function: USER32.dll!GetMessageW at 0x76f5cde8
Hook address: 0x20fda52
Hooking module: <unknown>

Disassembly(0):
0x76f5cde8 e9650c1a8b       JMP 0x20fda52
0x76f5cded 8b5510           MOV EDX, [EBP+0x10]
0x76f5cdf0 8b4d14           MOV ECX, [EBP+0x14]
0x76f5cdf3 0bd1             OR EDX, ECX
0x76f5cdf5 b80000feff       MOV EAX, 0xfffe0000
0x76f5cdfa 85d0             TEST EAX, EDX
0x76f5cdfc 0f               DB 0xf
0x76f5cdfd 857801           TEST [EAX+0x1], EDI

Disassembly(1):
0x20fda52 56               PUSH ESI
0x20fda53 8b742408         MOV ESI, [ESP+0x8]
0x20fda57 57               PUSH EDI
0x20fda58 ff742418         PUSH DWORD [ESP+0x18]
0x20fda5c ff742418         PUSH DWORD [ESP+0x18]
0x20fda60 ff742418         PUSH DWORD [ESP+0x18]
0x20fda64 56               PUSH ESI
0x20fda65 ff               DB 0xff
0x20fda66 15               DB 0x15
0x20fda67 10140f           ADC [EDI+ECX], DL

************************************************************************
Hook mode: Usermode
Hook type: Inline/Trampoline
Process: 2220 (vmtoolsd.exe)
Victim module: USER32.dll (0x76f40000 - 0x77009000)
Function: USER32.dll!GetUpdateRect at 0x76f4a575
Hook address: 0x21009d0
Hooking module: <unknown>

Disassembly(0):
0x76f4a575 e956641b8b       JMP 0x21009d0
0x76f4a57a 8b4d08           MOV ECX, [EBP+0x8]
0x76f4a57d e88e1f0100       CALL 0x76f5c510
0x76f4a582 85c0             TEST EAX, EAX
0x76f4a584 7423             JZ 0x76f4a5a9
0x76f4a586 83786800         CMP DWORD [EAX+0x68], 0x0
0x76f4a58a 7535             JNZ 0x76f4a5c1
0x76f4a58c f6               DB 0xf6

Disassembly(1):
0x21009d0 55               PUSH EBP
0x21009d1 8bec             MOV EBP, ESP
0x21009d3 f605e836110204   TEST BYTE [0x21136e8], 0x4
0x21009da 53               PUSH EBX
0x21009db 8b5d08           MOV EBX, [EBP+0x8]
0x21009de 56               PUSH ESI
0x21009df 746f             JZ 0x2100a50
0x21009e1 e892a60000       CALL 0x210b078
0x21009e6 84c0             TEST AL, AL

************************************************************************
Hook mode: Usermode
Hook type: Inline/Trampoline
Process: 2220 (vmtoolsd.exe)
Victim module: USER32.dll (0x76f40000 - 0x77009000)
Function: USER32.dll!GetUpdateRgn at 0x76f71c07
Hook address: 0x2100a63
Hooking module: <unknown>

Disassembly(0):
0x76f71c07 e957ee188b       JMP 0x2100a63
0x76f71c0c 56               PUSH ESI
0x76f71c0d 33f6             XOR ESI, ESI
0x76f71c0f 39750c           CMP [EBP+0xc], ESI
0x76f71c12 0f8415710000     JZ 0x76f78d2d
0x76f71c18 8b4d08           MOV ECX, [EBP+0x8]
0x76f71c1b e8               DB 0xe8
0x76f71c1c f0a8fe           TEST AL, 0xfe

Disassembly(1):
0x2100a63 55               PUSH EBP
0x2100a64 8bec             MOV EBP, ESP
0x2100a66 f605e836110204   TEST BYTE [0x21136e8], 0x4
0x2100a6d 53               PUSH EBX
0x2100a6e 8b5d08           MOV EBX, [EBP+0x8]
0x2100a71 56               PUSH ESI
0x2100a72 7470             JZ 0x2100ae4
0x2100a74 e8ffa50000       CALL 0x210b078
0x2100a79 84c0             TEST AL, AL

************************************************************************
Hook mode: Usermode
Hook type: Inline/Trampoline
Process: 2220 (vmtoolsd.exe)
Victim module: USER32.dll (0x76f40000 - 0x77009000)
Function: USER32.dll!GetWindowDC at 0x76f54ab7
Hook address: 0x2100951
Hooking module: <unknown>

Disassembly(0):
0x76f54ab7 e995be1a8b       JMP 0x2100951
0x76f54abc ba0003fe7f       MOV EDX, 0x7ffe0300
0x76f54ac1 ff12             CALL DWORD [EDX]
0x76f54ac3 c20400           RET 0x4
0x76f54ac6 80faff           CMP DL, 0xff
0x76f54ac9 0f85cc080000     JNZ 0x76f5539b

Disassembly(1):
0x2100951 f605e836110204   TEST BYTE [0x21136e8], 0x4
0x2100958 56               PUSH ESI
0x2100959 8b742408         MOV ESI, [ESP+0x8]
0x210095d 7426             JZ 0x2100985
0x210095f e814a70000       CALL 0x210b078
0x2100964 84c0             TEST AL, AL
0x2100966 741d             JZ 0x2100985
0x2100968 ff               DB 0xff

************************************************************************
Hook mode: Usermode
Hook type: Inline/Trampoline
Process: 2220 (vmtoolsd.exe)
Victim module: USER32.dll (0x76f40000 - 0x77009000)
Function: USER32.dll!OpenInputDesktop at 0x76f45c39
Hook address: 0x20f535e
Hooking module: <unknown>

Disassembly(0):
0x76f45c39 e920f71a8b       JMP 0x20f535e
0x76f45c3e ba0003fe7f       MOV EDX, 0x7ffe0300
0x76f45c43 ff12             CALL DWORD [EDX]
0x76f45c45 c20c00           RET 0xc
0x76f45c48 0000             ADD [EAX], AL
0x76f45c4a 895de0           MOV [EBP-0x20], EBX
0x76f45c4d e9               DB 0xe9
0x76f45c4e 1e               PUSH DS
0x76f45c4f 3d               DB 0x3d
0x76f45c50 00               DB 0x0

Disassembly(1):
0x20f535e 55               PUSH EBP
0x20f535f 8bec             MOV EBP, ESP
0x20f5361 83ec64           SUB ESP, 0x64
0x20f5364 f605e836110204   TEST BYTE [0x21136e8], 0x4
0x20f536b 742e             JZ 0x20f539b
0x20f536d e8065d0100       CALL 0x210b078
0x20f5372 84c0             TEST AL, AL
0x20f5374 7425             JZ 0x20f539b

************************************************************************
Hook mode: Usermode
Hook type: Inline/Trampoline
Process: 2220 (vmtoolsd.exe)
Victim module: USER32.dll (0x76f40000 - 0x77009000)
Function: USER32.dll!PeekMessageA at 0x76f519a5
Hook address: 0x20fdacd
Hooking module: <unknown>

Disassembly(0):
0x76f519a5 e923c11a8b       JMP 0x20fdacd
0x76f519aa 53               PUSH EBX
0x76f519ab 56               PUSH ESI
0x76f519ac 648b3518000000   MOV ESI, [FS:0x18]
0x76f519b3 33c9             XOR ECX, ECX
0x76f519b5 81c6cc060000     ADD ESI, 0x6cc
0x76f519bb 57               PUSH EDI
0x76f519bc 39               DB 0x39

Disassembly(1):
0x20fdacd 55               PUSH EBP
0x20fdace 8bec             MOV EBP, ESP
0x20fdad0 56               PUSH ESI
0x20fdad1 8b7508           MOV ESI, [EBP+0x8]
0x20fdad4 57               PUSH EDI
0x20fdad5 ff7518           PUSH DWORD [EBP+0x18]
0x20fdad8 ff7514           PUSH DWORD [EBP+0x14]
0x20fdadb ff7510           PUSH DWORD [EBP+0x10]
0x20fdade ff750c           PUSH DWORD [EBP+0xc]
0x20fdae1 56               PUSH ESI
0x20fdae2 ff               DB 0xff
0x20fdae3 15               DB 0x15
0x20fdae4 54               PUSH ESP

************************************************************************
Hook mode: Usermode
Hook type: Inline/Trampoline
Process: 2220 (vmtoolsd.exe)
Victim module: USER32.dll (0x76f40000 - 0x77009000)
Function: USER32.dll!PeekMessageW at 0x76f5634a
Hook address: 0x20fdaa2
Hooking module: <unknown>

Disassembly(0):
0x76f5634a e953771a8b       JMP 0x20fdaa2
0x76f5634f 53               PUSH EBX
0x76f56350 56               PUSH ESI
0x76f56351 648b3518000000   MOV ESI, [FS:0x18]
0x76f56358 33c9             XOR ECX, ECX
0x76f5635a 81c6cc060000     ADD ESI, 0x6cc
0x76f56360 57               PUSH EDI
0x76f56361 39               DB 0x39

Disassembly(1):
0x20fdaa2 55               PUSH EBP
0x20fdaa3 8bec             MOV EBP, ESP
0x20fdaa5 56               PUSH ESI
0x20fdaa6 8b7508           MOV ESI, [EBP+0x8]
0x20fdaa9 57               PUSH EDI
0x20fdaaa ff7518           PUSH DWORD [EBP+0x18]
0x20fdaad ff7514           PUSH DWORD [EBP+0x14]
0x20fdab0 ff7510           PUSH DWORD [EBP+0x10]
0x20fdab3 ff750c           PUSH DWORD [EBP+0xc]
0x20fdab6 56               PUSH ESI
0x20fdab7 ff               DB 0xff
0x20fdab8 15               DB 0x15
0x20fdab9 50               PUSH EAX

************************************************************************
Hook mode: Usermode
Hook type: Inline/Trampoline
Process: 2220 (vmtoolsd.exe)
Victim module: USER32.dll (0x76f40000 - 0x77009000)
Function: USER32.dll!RegisterClassA at 0x76f4bc6a
Hook address: 0x20f571d
Hooking module: <unknown>

Disassembly(0):
0x76f4bc6a e9ae9a1a8b       JMP 0x20f571d
0x76f4bc6f 83ec30           SUB ESP, 0x30
0x76f4bc72 8b4508           MOV EAX, [EBP+0x8]
0x76f4bc75 56               PUSH ESI
0x76f4bc76 57               PUSH EDI
0x76f4bc77 6a09             PUSH 0x9
0x76f4bc79 59               POP ECX
0x76f4bc7a 8d7004           LEA ESI, [EAX+0x4]
0x76f4bc7d 8b00             MOV EAX, [EAX]
0x76f4bc7f 6a01             PUSH 0x1
0x76f4bc81 8d               DB 0x8d

Disassembly(1):
0x20f571d 55               PUSH EBP
0x20f571e 8bec             MOV EBP, ESP
0x20f5720 83ec28           SUB ESP, 0x28
0x20f5723 f605e836110204   TEST BYTE [0x21136e8], 0x4
0x20f572a 56               PUSH ESI
0x20f572b 8b7508           MOV ESI, [EBP+0x8]
0x20f572e 742e             JZ 0x20f575e
0x20f5730 e843590100       CALL 0x210b078

************************************************************************
Hook mode: Usermode
Hook type: Inline/Trampoline
Process: 2220 (vmtoolsd.exe)
Victim module: USER32.dll (0x76f40000 - 0x77009000)
Function: USER32.dll!RegisterClassExA at 0x76f46293
Hook address: 0x20f57bc
Hooking module: <unknown>

Disassembly(0):
0x76f46293 e924f51a8b       JMP 0x20f57bc
0x76f46298 8b4508           MOV EAX, [EBP+0x8]
0x76f4629b 833830           CMP DWORD [EAX], 0x30
0x76f4629e 0f853e0a0400     JNZ 0x76f86ce2
0x76f462a4 6a01             PUSH 0x1
0x76f462a6 6880000000       PUSH DWORD 0x80

Disassembly(1):
0x20f57bc 55               PUSH EBP
0x20f57bd 8bec             MOV EBP, ESP
0x20f57bf 83ec30           SUB ESP, 0x30
0x20f57c2 f605e836110204   TEST BYTE [0x21136e8], 0x4
0x20f57c9 56               PUSH ESI
0x20f57ca 8b7508           MOV ESI, [EBP+0x8]
0x20f57cd 7433             JZ 0x20f5802
0x20f57cf e8a4580100       CALL 0x210b078

************************************************************************
Hook mode: Usermode
Hook type: Inline/Trampoline
Process: 2220 (vmtoolsd.exe)
Victim module: USER32.dll (0x76f40000 - 0x77009000)
Function: USER32.dll!RegisterClassExW at 0x76f50162
Hook address: 0x20f576a
Hooking module: <unknown>

Disassembly(0):
0x76f50162 e903561a8b       JMP 0x20f576a
0x76f50167 8b4508           MOV EAX, [EBP+0x8]
0x76f5016a 833830           CMP DWORD [EAX], 0x30
0x76f5016d 0f85899e0200     JNZ 0x76f79ffc
0x76f50173 6a01             PUSH 0x1
0x76f50175 6880000000       PUSH DWORD 0x80

Disassembly(1):
0x20f576a 55               PUSH EBP
0x20f576b 8bec             MOV EBP, ESP
0x20f576d 83ec30           SUB ESP, 0x30
0x20f5770 f605e836110204   TEST BYTE [0x21136e8], 0x4
0x20f5777 56               PUSH ESI
0x20f5778 8b7508           MOV ESI, [EBP+0x8]
0x20f577b 7433             JZ 0x20f57b0
0x20f577d e8f6580100       CALL 0x210b078

************************************************************************
Hook mode: Usermode
Hook type: Inline/Trampoline
Process: 2220 (vmtoolsd.exe)
Victim module: USER32.dll (0x76f40000 - 0x77009000)
Function: USER32.dll!RegisterClassW at 0x76f4ed4a
Hook address: 0x20f56d0
Hooking module: <unknown>

Disassembly(0):
0x76f4ed4a e981691a8b       JMP 0x20f56d0
0x76f4ed4f 83ec30           SUB ESP, 0x30
0x76f4ed52 8b4508           MOV EAX, [EBP+0x8]
0x76f4ed55 56               PUSH ESI
0x76f4ed56 57               PUSH EDI
0x76f4ed57 6a09             PUSH 0x9
0x76f4ed59 59               POP ECX
0x76f4ed5a 8d7004           LEA ESI, [EAX+0x4]
0x76f4ed5d 8b00             MOV EAX, [EAX]
0x76f4ed5f 6a01             PUSH 0x1
0x76f4ed61 8d               DB 0x8d

Disassembly(1):
0x20f56d0 55               PUSH EBP
0x20f56d1 8bec             MOV EBP, ESP
0x20f56d3 83ec28           SUB ESP, 0x28
0x20f56d6 f605e836110204   TEST BYTE [0x21136e8], 0x4
0x20f56dd 56               PUSH ESI
0x20f56de 8b7508           MOV ESI, [EBP+0x8]
0x20f56e1 742e             JZ 0x20f5711
0x20f56e3 e890590100       CALL 0x210b078

************************************************************************
Hook mode: Usermode
Hook type: Inline/Trampoline
Process: 2220 (vmtoolsd.exe)
Victim module: USER32.dll (0x76f40000 - 0x77009000)
Function: USER32.dll!ReleaseCapture at 0x76f769f2
Hook address: 0x20fd963
Hooking module: <unknown>

Disassembly(0):
0x76f769f2 e96c6f188b       JMP 0x20fd963
0x76f769f7 fe               DB 0xfe
0x76f769f8 ffc3             INC EBX
0x76f769fa 90               NOP
0x76f769fb 90               NOP
0x76f769fc 90               NOP
0x76f769fd 90               NOP
0x76f769fe 90               NOP
0x76f769ff 8bff             MOV EDI, EDI
0x76f76a01 55               PUSH EBP
0x76f76a02 8bec             MOV EBP, ESP
0x76f76a04 6a30             PUSH 0x30
0x76f76a06 ff7508           PUSH DWORD [EBP+0x8]
0x76f76a09 e8               DB 0xe8

Disassembly(1):
0x20fd963 f605e836110204   TEST BYTE [0x21136e8], 0x4
0x20fd96a 7441             JZ 0x20fd9ad
0x20fd96c e807d70000       CALL 0x210b078
0x20fd971 84c0             TEST AL, AL
0x20fd973 7438             JZ 0x20fd9ad
0x20fd975 ff1574120f02     CALL DWORD [0x20f1274]

************************************************************************
Hook mode: Usermode
Hook type: Inline/Trampoline
Process: 2220 (vmtoolsd.exe)
Victim module: USER32.dll (0x76f40000 - 0x77009000)
Function: USER32.dll!ReleaseDC at 0x76f55421
Hook address: 0x2100990
Hooking module: <unknown>

Disassembly(0):
0x76f55421 e96ab51a8b       JMP 0x2100990
0x76f55426 837d0c00         CMP DWORD [EBP+0xc], 0x0
0x76f5542a 0f846b380200     JZ 0x76f78c9b
0x76f55430 ff750c           PUSH DWORD [EBP+0xc]
0x76f55433 ff152013f476     CALL DWORD [0x76f41320]

Disassembly(1):
0x2100990 f605e836110204   TEST BYTE [0x21136e8], 0x4
0x2100997 56               PUSH ESI
0x2100998 8b74240c         MOV ESI, [ESP+0xc]
0x210099c 7423             JZ 0x21009c1
0x210099e e8d5a60000       CALL 0x210b078
0x21009a3 84c0             TEST AL, AL
0x21009a5 741a             JZ 0x21009c1
0x21009a7 ff               DB 0xff

************************************************************************
Hook mode: Usermode
Hook type: Inline/Trampoline
Process: 2220 (vmtoolsd.exe)
Victim module: USER32.dll (0x76f40000 - 0x77009000)
Function: USER32.dll!SetCapture at 0x76f76932
Hook address: 0x20fd909
Hooking module: <unknown>

Disassembly(0):
0x76f76932 e9d26f188b       JMP 0x20fd909
0x76f76937 ba0003fe7f       MOV EDX, 0x7ffe0300
0x76f7693c ff12             CALL DWORD [EDX]
0x76f7693e c20400           RET 0x4
0x76f76941 90               NOP
0x76f76942 90               NOP
0x76f76943 90               NOP
0x76f76944 90               NOP
0x76f76945 90               NOP
0x76f76946 b8               DB 0xb8
0x76f76947 b211             MOV DL, 0x11
0x76f76949 00               DB 0x0

Disassembly(1):
0x20fd909 f605e836110204   TEST BYTE [0x21136e8], 0x4
0x20fd910 53               PUSH EBX
0x20fd911 56               PUSH ESI
0x20fd912 57               PUSH EDI
0x20fd913 7445             JZ 0x20fd95a
0x20fd915 e85ed70000       CALL 0x210b078
0x20fd91a 84c0             TEST AL, AL
0x20fd91c 743c             JZ 0x20fd95a
0x20fd91e 8b               DB 0x8b
0x20fd91f 5c               POP ESP
0x20fd920 24               DB 0x24

************************************************************************
Hook mode: Usermode
Hook type: Inline/Trampoline
Process: 2220 (vmtoolsd.exe)
Victim module: USER32.dll (0x76f40000 - 0x77009000)
Function: USER32.dll!SetCursorPos at 0x76f8c1b0
Hook address: 0x20fd8cc
Hooking module: <unknown>

Disassembly(0):
0x76f8c1b0 e91717178b       JMP 0x20fd8cc
0x76f8c1b5 6a74             PUSH 0x74
0x76f8c1b7 ff750c           PUSH DWORD [EBP+0xc]
0x76f8c1ba ff7508           PUSH DWORD [EBP+0x8]
0x76f8c1bd e80a1afcff       CALL 0x76f4dbcc
0x76f8c1c2 5d               POP EBP
0x76f8c1c3 c20800           RET 0x8
0x76f8c1c6 90               NOP
0x76f8c1c7 90               NOP

Disassembly(1):
0x20fd8cc f605e836110204   TEST BYTE [0x21136e8], 0x4
0x20fd8d3 742e             JZ 0x20fd903
0x20fd8d5 e89ed70000       CALL 0x210b078
0x20fd8da 84c0             TEST AL, AL
0x20fd8dc 7425             JZ 0x20fd903
0x20fd8de a1b8231102       MOV EAX, [0x21123b8]
0x20fd8e3 8b               DB 0x8b

************************************************************************
Hook mode: Usermode
Hook type: Inline/Trampoline
Process: 2220 (vmtoolsd.exe)
Victim module: USER32.dll (0x76f40000 - 0x77009000)
Function: USER32.dll!SwitchDesktop at 0x76f4476b
Hook address: 0x20f53ae
Hooking module: <unknown>

Disassembly(0):
0x76f4476b e93e0c1b8b       JMP 0x20f53ae
0x76f44770 6a00             PUSH 0x0
0x76f44772 ff7508           PUSH DWORD [EBP+0x8]
0x76f44775 e8a2020000       CALL 0x76f44a1c
0x76f4477a 5d               POP EBP
0x76f4477b c20400           RET 0x4
0x76f4477e 33c0             XOR EAX, EAX
0x76f44780 e9               DB 0xe9
0x76f44781 3a               DB 0x3a
0x76f44782 73               DB 0x73

Disassembly(1):
0x20f53ae f605e836110204   TEST BYTE [0x21136e8], 0x4
0x20f53b5 740f             JZ 0x20f53c6
0x20f53b7 e8bc5c0100       CALL 0x210b078
0x20f53bc 84c0             TEST AL, AL
0x20f53be 7406             JZ 0x20f53c6
0x20f53c0 33c0             XOR EAX, EAX
0x20f53c2 40               INC EAX
0x20f53c3 c20400           RET 0x4

************************************************************************
Hook mode: Usermode
Hook type: Inline/Trampoline
Process: 2220 (vmtoolsd.exe)
Victim module: USER32.dll (0x76f40000 - 0x77009000)
Function: USER32.dll!TranslateMessage at 0x76f564c7
Hook address: 0x20ff91f
Hooking module: <unknown>

Disassembly(0):
0x76f564c7 e953941a8b       JMP 0x20ff91f
0x76f564cc 56               PUSH ESI
0x76f564cd 8b7508           MOV ESI, [EBP+0x8]
0x76f564d0 b8e5000000       MOV EAX, 0xe5
0x76f564d5 66394608         CMP [ESI+0x8], AX
0x76f564d9 0f84e4dc0200     JZ 0x76f841c3

Disassembly(1):
0x20ff91f 55               PUSH EBP
0x20ff920 8bec             MOV EBP, ESP
0x20ff922 83e4f8           AND ESP, -0x8
0x20ff925 81ec74030000     SUB ESP, 0x374
0x20ff92b 53               PUSH EBX
0x20ff92c 8b5d08           MOV EBX, [EBP+0x8]
0x20ff92f 56               PUSH ESI
0x20ff930 57               PUSH EDI
0x20ff931 85db             TEST EBX, EBX
0x20ff933 0f               DB 0xf
0x20ff934 843c01           TEST [ECX+EAX], BH

************************************************************************
Hook mode: Usermode
Hook type: Inline/Trampoline
Process: 2220 (vmtoolsd.exe)
Victim module: WS2_32.dll (0x75ad0000 - 0x75b05000)
Function: WS2_32.dll!WSASend at 0x75ad4406
Hook address: 0x20fff16
Hooking module: <unknown>

Disassembly(0):
0x75ad4406 e90bbb628c       JMP 0x20fff16
0x75ad440b 51               PUSH ECX
0x75ad440c 51               PUSH ECX
0x75ad440d 813d4870af75292ead75 CMP DWORD [0x75af7048], 0x75ad2e29
0x75ad4417 56               PUSH ESI
0x75ad4418 0f85ca010000     JNZ 0x75ad45e8

Disassembly(1):
0x20fff16 55               PUSH EBP
0x20fff17 8bec             MOV EBP, ESP
0x20fff19 83e4f8           AND ESP, -0x8
0x20fff1c 56               PUSH ESI
0x20fff1d 57               PUSH EDI
0x20fff1e e855b10000       CALL 0x210b078
0x20fff23 8b750c           MOV ESI, [EBP+0xc]
0x20fff26 84c0             TEST AL, AL
0x20fff28 7419             JZ 0x20fff43
0x20fff2a 837d1000         CMP DWORD [EBP+0x10], 0x0

************************************************************************
Hook mode: Usermode
Hook type: Inline/Trampoline
Process: 2220 (vmtoolsd.exe)
Victim module: WS2_32.dll (0x75ad0000 - 0x75b05000)
Function: WS2_32.dll!closesocket at 0x75ad3918
Hook address: 0x20ffebd
Hooking module: <unknown>

Disassembly(0):
0x75ad3918 e9a0c5628c       JMP 0x20ffebd
0x75ad391d 51               PUSH ECX
0x75ad391e 53               PUSH EBX
0x75ad391f 56               PUSH ESI
0x75ad3920 be292ead75       MOV ESI, 0x75ad2e29
0x75ad3925 33db             XOR EBX, EBX
0x75ad3927 57               PUSH EDI
0x75ad3928 39354870af75     CMP [0x75af7048], ESI
0x75ad392e 0f               DB 0xf
0x75ad392f 85               DB 0x85

Disassembly(1):
0x20ffebd e8b6b10000       CALL 0x210b078
0x20ffec2 84c0             TEST AL, AL
0x20ffec4 7429             JZ 0x20ffeef
0x20ffec6 56               PUSH ESI
0x20ffec7 be68271102       MOV ESI, 0x2112768
0x20ffecc 56               PUSH ESI
0x20ffecd ff154c120f02     CALL DWORD [0x20f124c]
0x20ffed3 ff               DB 0xff
0x20ffed4 74               DB 0x74

************************************************************************
Hook mode: Usermode
Hook type: Inline/Trampoline
Process: 2220 (vmtoolsd.exe)
Victim module: WS2_32.dll (0x75ad0000 - 0x75b05000)
Function: WS2_32.dll!send at 0x75ad6f01
Hook address: 0x20ffef5
Hooking module: <unknown>

Disassembly(0):
0x75ad6f01 e9ef8f628c       JMP 0x20ffef5
0x75ad6f06 83ec10           SUB ESP, 0x10
0x75ad6f09 56               PUSH ESI
0x75ad6f0a 57               PUSH EDI
0x75ad6f0b 33ff             XOR EDI, EDI
0x75ad6f0d 813d4870af75292ead75 CMP DWORD [0x75af7048], 0x75ad2e29
0x75ad6f17 757b             JNZ 0x75ad6f94

Disassembly(1):
0x20ffef5 55               PUSH EBP
0x20ffef6 8bec             MOV EBP, ESP
0x20ffef8 e87bb10000       CALL 0x210b078
0x20ffefd 84c0             TEST AL, AL
0x20ffeff 740e             JZ 0x20fff0f
0x20fff01 ff7508           PUSH DWORD [EBP+0x8]
0x20fff04 8b4510           MOV EAX, [EBP+0x10]
0x20fff07 8b4d0c           MOV ECX, [EBP+0xc]
0x20fff0a e8               DB 0xe8
0x20fff0b 35               DB 0x35
0x20fff0c fd               STD

************************************************************************
Hook mode: Usermode
Hook type: Inline/Trampoline
Process: 2220 (vmtoolsd.exe)
Victim module: CRYPT32.dll (0x754d0000 - 0x755ed000)
Function: CRYPT32.dll!PFXImportCertStore at 0x75560ddc
Hook address: 0x210c8ed
Hooking module: <unknown>

Disassembly(0):
0x75560ddc e90cbbba8c       JMP 0x210c8ed
0x75560de1 81ec84000000     SUB ESP, 0x84
0x75560de7 a108535875       MOV EAX, [0x75585308]
0x75560dec 33c5             XOR EAX, EBP
0x75560dee 8945fc           MOV [EBP-0x4], EAX
0x75560df1 53               PUSH EBX
0x75560df2 8b               DB 0x8b
0x75560df3 5d               POP EBP

Disassembly(1):
0x210c8ed 55               PUSH EBP
0x210c8ee 8bec             MOV EBP, ESP
0x210c8f0 83e4f8           AND ESP, -0x8
0x210c8f3 81ecfc020000     SUB ESP, 0x2fc
0x210c8f9 53               PUSH EBX
0x210c8fa 8b5d08           MOV EBX, [EBP+0x8]
0x210c8fd 56               PUSH ESI
0x210c8fe 57               PUSH EDI
0x210c8ff ff7510           PUSH DWORD [EBP+0x10]
0x210c902 ff750c           PUSH DWORD [EBP+0xc]

************************************************************************
Hook mode: Usermode
Hook type: Inline/Trampoline
Process: 2220 (vmtoolsd.exe)
Victim module: unity.dll (0x6dd00000 - 0x6deda000)
Function: unity.dll!??_D?$PropertyTypeHelper@H@cui@@QAEXXZ at 0x6dd6c820
Hook address: 0x6dee14d3
Hooking module: sigc-2.0.dll

Disassembly(0):
0x6dd6c820 c701307ae66d     MOV DWORD [ECX], 0x6de67a30
0x6dd6c826 83c108           ADD ECX, 0x8
0x6dd6c829 ff258cabe46d     JMP DWORD [0x6de4ab8c]
0x6dd6c82f cc               INT 3
0x6dd6c830 55               PUSH EBP
0x6dd6c831 8bec             MOV EBP, ESP
0x6dd6c833 51               PUSH ECX
0x6dd6c834 a1               DB 0xa1
0x6dd6c835 f8               CLC
0x6dd6c836 96               XCHG ESI, EAX
0x6dd6c837 eb               DB 0xeb

Disassembly(1):
0x6dee14d3 e9f8510000       JMP 0x6dee66d0
0x6dee14d8 e913230000       JMP 0x6dee37f0
0x6dee14dd e99e210000       JMP 0x6dee3680
0x6dee14e2 e9891d0000       JMP 0x6dee3270
0x6dee14e7 e9               DB 0xe9
0x6dee14e8 040c             ADD AL, 0xc
0x6dee14ea 00               DB 0x0

************************************************************************
Hook mode: Usermode
Hook type: Inline/Trampoline
Process: 2220 (vmtoolsd.exe)
Victim module: unity.dll (0x6dd00000 - 0x6deda000)
Function: unity.dll!??_D?$PropertyTypeHelper@Vstring@utf@@@cui@@QAEXXZ at 0x6dd6c810
Hook address: 0x6dee14d3
Hooking module: sigc-2.0.dll

Disassembly(0):
0x6dd6c810 c701247ae66d     MOV DWORD [ECX], 0x6de67a24
0x6dd6c816 83c108           ADD ECX, 0x8
0x6dd6c819 ff258cabe46d     JMP DWORD [0x6de4ab8c]
0x6dd6c81f cc               INT 3
0x6dd6c820 c701307ae66d     MOV DWORD [ECX], 0x6de67a30
0x6dd6c826 83               DB 0x83
0x6dd6c827 c1               DB 0xc1

Disassembly(1):
0x6dee14d3 e9f8510000       JMP 0x6dee66d0
0x6dee14d8 e913230000       JMP 0x6dee37f0
0x6dee14dd e99e210000       JMP 0x6dee3680
0x6dee14e2 e9891d0000       JMP 0x6dee3270
0x6dee14e7 e9               DB 0xe9
0x6dee14e8 040c             ADD AL, 0xc
0x6dee14ea 00               DB 0x0

************************************************************************
Hook mode: Usermode
Hook type: Inline/Trampoline
Process: 2220 (vmtoolsd.exe)
Victim module: WININET.dll (0x760b0000 - 0x761a5000)
Function: WININET.dll!HttpQueryInfoA at 0x760ca33e
Hook address: 0x210a4ad
Hooking module: <unknown>

Disassembly(0):
0x760ca33e e96a01048c       JMP 0x210a4ad
0x760ca343 83ec6c           SUB ESP, 0x6c
0x760ca346 a1a0931676       MOV EAX, [0x761693a0]
0x760ca34b 33c5             XOR EAX, EBP
0x760ca34d 8945fc           MOV [EBP-0x4], EAX
0x760ca350 8b4510           MOV EAX, [EBP+0x10]
0x760ca353 8945d8           MOV [EBP-0x28], EAX

Disassembly(1):
0x210a4ad 55               PUSH EBP
0x210a4ae 8bec             MOV EBP, ESP
0x210a4b0 e8c30b0000       CALL 0x210b078
0x210a4b5 84c0             TEST AL, AL
0x210a4b7 7441             JZ 0x210a4fa
0x210a4b9 56               PUSH ESI
0x210a4ba 57               PUSH EDI
0x210a4bb bfb0351102       MOV EDI, 0x21135b0
0x210a4c0 57               PUSH EDI
0x210a4c1 ff               DB 0xff
0x210a4c2 15               DB 0x15
0x210a4c3 4c               DEC ESP
0x210a4c4 12               DB 0x12

************************************************************************
Hook mode: Usermode
Hook type: Inline/Trampoline
Process: 2220 (vmtoolsd.exe)
Victim module: WININET.dll (0x760b0000 - 0x761a5000)
Function: WININET.dll!HttpSendRequestA at 0x761418f8
Hook address: 0x210a229
Hooking module: <unknown>

Disassembly(0):
0x761418f8 e92c89fc8b       JMP 0x210a229
0x761418fd 83ec38           SUB ESP, 0x38
0x76141900 56               PUSH ESI
0x76141901 6a38             PUSH 0x38
0x76141903 8d45c8           LEA EAX, [EBP-0x38]
0x76141906 6a00             PUSH 0x0
0x76141908 50               PUSH EAX
0x76141909 e80d00f7ff       CALL 0x760b191b
0x7614190e 83               DB 0x83
0x7614190f c4               DB 0xc4

Disassembly(1):
0x210a229 55               PUSH EBP
0x210a22a 8bec             MOV EBP, ESP
0x210a22c e8470e0000       CALL 0x210b078
0x210a231 84c0             TEST AL, AL
0x210a233 743d             JZ 0x210a272
0x210a235 837d1000         CMP DWORD [EBP+0x10], 0x0
0x210a239 7422             JZ 0x210a25d
0x210a23b 837d0c00         CMP DWORD [EBP+0xc], 0x0
0x210a23f 741c             JZ 0x210a25d

************************************************************************
Hook mode: Usermode
Hook type: Inline/Trampoline
Process: 2220 (vmtoolsd.exe)
Victim module: WININET.dll (0x760b0000 - 0x761a5000)
Function: WININET.dll!HttpSendRequestExA at 0x76141812
Hook address: 0x210a319
Hooking module: <unknown>

Disassembly(0):
0x76141812 e9028bfc8b       JMP 0x210a319
0x76141817 83ec40           SUB ESP, 0x40
0x7614181a 53               PUSH EBX
0x7614181b 56               PUSH ESI
0x7614181c 57               PUSH EDI
0x7614181d 6a38             PUSH 0x38
0x7614181f 33f6             XOR ESI, ESI
0x76141821 8d45c0           LEA EAX, [EBP-0x40]
0x76141824 56               PUSH ESI
0x76141825 50               PUSH EAX
0x76141826 33ff             XOR EDI, EDI
0x76141828 33db             XOR EBX, EBX

Disassembly(1):
0x210a319 55               PUSH EBP
0x210a31a 8bec             MOV EBP, ESP
0x210a31c 83e4f8           AND ESP, -0x8
0x210a31f 83ec2c           SUB ESP, 0x2c
0x210a322 56               PUSH ESI
0x210a323 e8500d0000       CALL 0x210b078
0x210a328 84c0             TEST AL, AL
0x210a32a 746c             JZ 0x210a398
0x210a32c 33f6             XOR ESI, ESI
0x210a32e 6a28             PUSH 0x28
0x210a330 8d               DB 0x8d

************************************************************************
Hook mode: Usermode
Hook type: Inline/Trampoline
Process: 2220 (vmtoolsd.exe)
Victim module: WININET.dll (0x760b0000 - 0x761a5000)
Function: WININET.dll!HttpSendRequestExW at 0x760e4a3d
Hook address: 0x210a27d
Hooking module: <unknown>

Disassembly(0):
0x760e4a3d e93b58028c       JMP 0x210a27d
0x760e4a42 83ec4c           SUB ESP, 0x4c
0x760e4a45 53               PUSH EBX
0x760e4a46 57               PUSH EDI
0x760e4a47 33ff             XOR EDI, EDI
0x760e4a49 6a38             PUSH 0x38
0x760e4a4b 8d45b4           LEA EAX, [EBP-0x4c]
0x760e4a4e 57               PUSH EDI
0x760e4a4f 50               PUSH EAX
0x760e4a50 897dfc           MOV [EBP-0x4], EDI
0x760e4a53 89               DB 0x89
0x760e4a54 7d               DB 0x7d

Disassembly(1):
0x210a27d 55               PUSH EBP
0x210a27e 8bec             MOV EBP, ESP
0x210a280 83e4f8           AND ESP, -0x8
0x210a283 83ec2c           SUB ESP, 0x2c
0x210a286 56               PUSH ESI
0x210a287 e8ec0d0000       CALL 0x210b078
0x210a28c 84c0             TEST AL, AL
0x210a28e 746c             JZ 0x210a2fc
0x210a290 33f6             XOR ESI, ESI
0x210a292 6a28             PUSH 0x28
0x210a294 8d               DB 0x8d

************************************************************************
Hook mode: Usermode
Hook type: Inline/Trampoline
Process: 2220 (vmtoolsd.exe)
Victim module: WININET.dll (0x760b0000 - 0x761a5000)
Function: WININET.dll!HttpSendRequestW at 0x760dba12
Hook address: 0x210a1d5
Hooking module: <unknown>

Disassembly(0):
0x760dba12 e9bee7028c       JMP 0x210a1d5
0x760dba17 83ec40           SUB ESP, 0x40
0x760dba1a 53               PUSH EBX
0x760dba1b 56               PUSH ESI
0x760dba1c 57               PUSH EDI
0x760dba1d 33f6             XOR ESI, ESI
0x760dba1f 6a38             PUSH 0x38
0x760dba21 8d45c0           LEA EAX, [EBP-0x40]
0x760dba24 56               PUSH ESI
0x760dba25 50               PUSH EAX
0x760dba26 33ff             XOR EDI, EDI
0x760dba28 33db             XOR EBX, EBX

Disassembly(1):
0x210a1d5 55               PUSH EBP
0x210a1d6 8bec             MOV EBP, ESP
0x210a1d8 e89b0e0000       CALL 0x210b078
0x210a1dd 84c0             TEST AL, AL
0x210a1df 743d             JZ 0x210a21e
0x210a1e1 837d1000         CMP DWORD [EBP+0x10], 0x0
0x210a1e5 7422             JZ 0x210a209
0x210a1e7 837d0c00         CMP DWORD [EBP+0xc], 0x0
0x210a1eb 741c             JZ 0x210a209

************************************************************************
Hook mode: Usermode
Hook type: Inline/Trampoline
Process: 2220 (vmtoolsd.exe)
Victim module: WININET.dll (0x760b0000 - 0x761a5000)
Function: WININET.dll!InternetCloseHandle at 0x760cab49
Hook address: 0x210a3b5
Hooking module: <unknown>

Disassembly(0):
0x760cab49 e967f8038c       JMP 0x210a3b5
0x760cab4e 83ec38           SUB ESP, 0x38
0x760cab51 56               PUSH ESI
0x760cab52 6a38             PUSH 0x38
0x760cab54 8d45c8           LEA EAX, [EBP-0x38]
0x760cab57 6a00             PUSH 0x0
0x760cab59 50               PUSH EAX
0x760cab5a e8bc6dfeff       CALL 0x760b191b
0x760cab5f 83               DB 0x83
0x760cab60 c4               DB 0xc4

Disassembly(1):
0x210a3b5 53               PUSH EBX
0x210a3b6 56               PUSH ESI
0x210a3b7 8b74240c         MOV ESI, [ESP+0xc]
0x210a3bb 56               PUSH ESI
0x210a3bc ff1500150f02     CALL DWORD [0x20f1500]
0x210a3c2 8bd8             MOV EBX, EAX
0x210a3c4 e8af0c0000       CALL 0x210b078
0x210a3c9 84c0             TEST AL, AL
0x210a3cb 7424             JZ 0x210a3f1

************************************************************************
Hook mode: Usermode
Hook type: Inline/Trampoline
Process: 2220 (vmtoolsd.exe)
Victim module: WININET.dll (0x760b0000 - 0x761a5000)
Function: WININET.dll!InternetQueryDataAvailable at 0x760d5e5d
Hook address: 0x210a481
Hooking module: <unknown>

Disassembly(0):
0x760d5e5d e91f46038c       JMP 0x210a481
0x760d5e62 83ec64           SUB ESP, 0x64
0x760d5e65 a1a0931676       MOV EAX, [0x761693a0]
0x760d5e6a 33c5             XOR EAX, EBP
0x760d5e6c 8945fc           MOV [EBP-0x4], EAX
0x760d5e6f 8b450c           MOV EAX, [EBP+0xc]
0x760d5e72 53               PUSH EBX
0x760d5e73 8b               DB 0x8b
0x760d5e74 5d               POP EBP

Disassembly(1):
0x210a481 55               PUSH EBP
0x210a482 8bec             MOV EBP, ESP
0x210a484 e8ef0b0000       CALL 0x210b078
0x210a489 84c0             TEST AL, AL
0x210a48b 7415             JZ 0x210a4a2
0x210a48d ff750c           PUSH DWORD [EBP+0xc]
0x210a490 8d4508           LEA EAX, [EBP+0x8]
0x210a493 6a00             PUSH 0x0
0x210a495 6a00             PUSH 0x0
0x210a497 50               PUSH EAX
0x210a498 e8               DB 0xe8

************************************************************************
Hook mode: Usermode
Hook type: Inline/Trampoline
Process: 2220 (vmtoolsd.exe)
Victim module: WININET.dll (0x760b0000 - 0x761a5000)
Function: WININET.dll!InternetReadFile at 0x760cb406
Hook address: 0x210a3f8
Hooking module: <unknown>

Disassembly(0):
0x760cb406 e9edef038c       JMP 0x210a3f8
0x760cb40b 83ec38           SUB ESP, 0x38
0x760cb40e 56               PUSH ESI
0x760cb40f 6a38             PUSH 0x38
0x760cb411 8d45c8           LEA EAX, [EBP-0x38]
0x760cb414 6a00             PUSH 0x0
0x760cb416 50               PUSH EAX
0x760cb417 e8ff64feff       CALL 0x760b191b
0x760cb41c 83               DB 0x83
0x760cb41d c4               DB 0xc4

Disassembly(1):
0x210a3f8 55               PUSH EBP
0x210a3f9 8bec             MOV EBP, ESP
0x210a3fb e8780c0000       CALL 0x210b078
0x210a400 84c0             TEST AL, AL
0x210a402 7428             JZ 0x210a42c
0x210a404 33c0             XOR EAX, EAX
0x210a406 39450c           CMP [EBP+0xc], EAX
0x210a409 7421             JZ 0x210a42c
0x210a40b 394510           CMP [EBP+0x10], EAX
0x210a40e 761c             JBE 0x210a42c

************************************************************************
Hook mode: Usermode
Hook type: Inline/Trampoline
Process: 2220 (vmtoolsd.exe)
Victim module: WININET.dll (0x760b0000 - 0x761a5000)
Function: WININET.dll!InternetReadFileExA at 0x760fae46
Hook address: 0x210a437
Hooking module: <unknown>

Disassembly(0):
0x760fae46 e9ecf5008c       JMP 0x210a437
0x760fae4b 83ec78           SUB ESP, 0x78
0x760fae4e a1a0931676       MOV EAX, [0x761693a0]
0x760fae53 33c5             XOR EAX, EBP
0x760fae55 8945fc           MOV [EBP-0x4], EAX
0x760fae58 8b4508           MOV EAX, [EBP+0x8]
0x760fae5b 53               PUSH EBX
0x760fae5c 56               PUSH ESI
0x760fae5d 8b               DB 0x8b

Disassembly(1):
0x210a437 55               PUSH EBP
0x210a438 8bec             MOV EBP, ESP
0x210a43a 56               PUSH ESI
0x210a43b e8380c0000       CALL 0x210b078
0x210a440 8b750c           MOV ESI, [EBP+0xc]
0x210a443 84c0             TEST AL, AL
0x210a445 7425             JZ 0x210a46c
0x210a447 85f6             TEST ESI, ESI
0x210a449 7421             JZ 0x210a46c
0x210a44b 8b5614           MOV EDX, [ESI+0x14]
0x210a44e 85               DB 0x85

************************************************************************
Hook mode: Usermode
Hook type: Inline/Trampoline
Process: 2584 (WmiPrvSE.exe)
Victim module: mscoree.dll (0x6d5e0000 - 0x6d62a000)
Function: mscoree.dll!_CorImageUnloading at 0x6d60033b
Hook address: 0x60313dae
Hooking module: CorperfmonExt.dll

Disassembly(0):
0x6d60033b c20400           RET 0x4
0x6d60033e ff25d442626d     JMP DWORD [0x6d6242d4]
0x6d600344 ff0dc842626d     DEC DWORD [0x6d6242c8]
0x6d60034a 7511             JNZ 0x6d60035d
0x6d60034c ff15d842626d     CALL DWORD [0x6d6242d8]
0x6d600352 ff               DB 0xff

Disassembly(1):
0x60313dae 6830010000       PUSH DWORD 0x130
0x60313db3 6858eb3160       PUSH DWORD 0x6031eb58
0x60313db8 e827810000       CALL 0x6031bee4
0x60313dbd 8b4508           MOV EAX, [EBP+0x8]
0x60313dc0 8985e0feffff     MOV [EBP-0x120], EAX

************************************************************************
Hook mode: Usermode
Hook type: Import Address Table (IAT)
Process: 2584 (WmiPrvSE.exe)
Victim module: UTILDLL.dll (0x730d0000 - 0x730e5000)
Function: netapi32.dll!NetServerEnum
Hook address: 0x73ae2f61
Hooking module: BROWCLI.DLL

Disassembly(0):
0x73ae2f61 8bff             MOV EDI, EDI
0x73ae2f63 55               PUSH EBP
0x73ae2f64 8bec             MOV EBP, ESP
0x73ae2f66 6a00             PUSH 0x0
0x73ae2f68 ff7524           PUSH DWORD [EBP+0x24]
0x73ae2f6b ff7520           PUSH DWORD [EBP+0x20]
0x73ae2f6e ff751c           PUSH DWORD [EBP+0x1c]
0x73ae2f71 ff7518           PUSH DWORD [EBP+0x18]
0x73ae2f74 ff7514           PUSH DWORD [EBP+0x14]
0x73ae2f77 ff               DB 0xff
0x73ae2f78 75               DB 0x75

************************************************************************
Hook mode: Usermode
Hook type: Inline/Trampoline
Process: 2784 (iexplore.exe)
Victim module: ntdll.dll (0x771a0000 - 0x772dc000)
Function: ntdll.dll!LdrLoadDll at 0x772022b8
Hook address: 0x875a6e
Hooking module: <unknown>

Disassembly(0):
0x772022b8 e9b1376789       JMP 0x875a6e
0x772022bd 51               PUSH ECX
0x772022be 51               PUSH ECX
0x772022bf a158751f77       MOV EAX, [0x771f7558]
0x772022c4 53               PUSH EBX
0x772022c5 56               PUSH ESI
0x772022c6 8b7508           MOV ESI, [EBP+0x8]
0x772022c9 83c801           OR EAX, 0x1
0x772022cc 57               PUSH EDI
0x772022cd bb               DB 0xbb
0x772022ce a2               DB 0xa2
0x772022cf 7e               DB 0x7e

Disassembly(1):
0x875a6e 55               PUSH EBP
0x875a6f 8bec             MOV EBP, ESP
0x875a71 e802560100       CALL 0x88b078
0x875a76 84c0             TEST AL, AL
0x875a78 7507             JNZ 0x875a81
0x875a7a 5d               POP EBP
0x875a7b ff2520378900     JMP DWORD [0x893720]
0x875a81 53               PUSH EBX
0x875a82 56               PUSH ESI
0x875a83 8b7514           MOV ESI, [EBP+0x14]

************************************************************************
Hook mode: Usermode
Hook type: Inline/Trampoline
Process: 2784 (iexplore.exe)
Victim module: ntdll.dll (0x771a0000 - 0x772dc000)
Function: ntdll.dll!NtCreateUserProcess at 0x771e5778
Hook address: 0x875945
Hooking module: <unknown>

Disassembly(0):
0x771e5778 e9c8016989       JMP 0x875945
0x771e577d ba0003fe7f       MOV EDX, 0x7ffe0300
0x771e5782 ff12             CALL DWORD [EDX]
0x771e5784 c22c00           RET 0x2c
0x771e5787 90               NOP
0x771e5788 b85e000000       MOV EAX, 0x5e
0x771e578d ba               DB 0xba
0x771e578e 0003             ADD [EBX], AL

Disassembly(1):
0x875945 55               PUSH EBP
0x875946 8bec             MOV EBP, ESP
0x875948 81eccc020000     SUB ESP, 0x2cc
0x87594e 53               PUSH EBX
0x87594f ff7530           PUSH DWORD [EBP+0x30]
0x875952 8b5d08           MOV EBX, [EBP+0x8]
0x875955 ff752c           PUSH DWORD [EBP+0x2c]
0x875958 ff7528           PUSH DWORD [EBP+0x28]
0x87595b ff               DB 0xff
0x87595c 75               DB 0x75

************************************************************************
Hook mode: Usermode
Hook type: Inline/Trampoline
Process: 2784 (iexplore.exe)
Victim module: ntdll.dll (0x771a0000 - 0x772dc000)
Function: ntdll.dll!ZwCreateUserProcess at 0x771e5778
Hook address: 0x875945
Hooking module: <unknown>

Disassembly(0):
0x771e5778 e9c8016989       JMP 0x875945
0x771e577d ba0003fe7f       MOV EDX, 0x7ffe0300
0x771e5782 ff12             CALL DWORD [EDX]
0x771e5784 c22c00           RET 0x2c
0x771e5787 90               NOP
0x771e5788 b85e000000       MOV EAX, 0x5e
0x771e578d ba               DB 0xba
0x771e578e 0003             ADD [EBX], AL

Disassembly(1):
0x875945 55               PUSH EBP
0x875946 8bec             MOV EBP, ESP
0x875948 81eccc020000     SUB ESP, 0x2cc
0x87594e 53               PUSH EBX
0x87594f ff7530           PUSH DWORD [EBP+0x30]
0x875952 8b5d08           MOV EBX, [EBP+0x8]
0x875955 ff752c           PUSH DWORD [EBP+0x2c]
0x875958 ff7528           PUSH DWORD [EBP+0x28]
0x87595b ff               DB 0xff
0x87595c 75               DB 0x75

************************************************************************
Hook mode: Usermode
Hook type: Inline/Trampoline
Process: 2784 (iexplore.exe)
Victim module: kernel32.dll (0x75960000 - 0x75a34000)
Function: kernel32.dll!GetFileAttributesExW at 0x759a273d
Hook address: 0x875b0e
Hooking module: <unknown>

Disassembly(0):
0x759a273d e9cc33ed8a       JMP 0x875b0e
0x759a2742 5d               POP EBP
0x759a2743 eb05             JMP 0x759a274a
0x759a2745 90               NOP
0x759a2746 90               NOP
0x759a2747 90               NOP
0x759a2748 90               NOP
0x759a2749 90               NOP
0x759a274a ff25341a9675     JMP DWORD [0x75961a34]
0x759a2750 33c9             XOR ECX, ECX
0x759a2752 39               DB 0x39
0x759a2753 8d               DB 0x8d
0x759a2754 60               PUSHA

Disassembly(1):
0x875b0e 55               PUSH EBP
0x875b0f 8bec             MOV EBP, ESP
0x875b11 817d0c6063f188   CMP DWORD [EBP+0xc], 0x88f16360
0x875b18 57               PUSH EDI
0x875b19 7551             JNZ 0x875b6c
0x875b1b 837d0800         CMP DWORD [EBP+0x8], 0x0
0x875b1f 744b             JZ 0x875b6c
0x875b21 e852550100       CALL 0x88b078

************************************************************************
Hook mode: Usermode
Hook type: Inline/Trampoline
Process: 2784 (iexplore.exe)
Victim module: USER32.dll (0x76f40000 - 0x77009000)
Function: USER32.dll!BeginPaint at 0x76f55d14
Hook address: 0x880807
Hooking module: <unknown>

Disassembly(0):
0x76f55d14 e9eeaa9289       JMP 0x880807
0x76f55d19 ba0003fe7f       MOV EDX, 0x7ffe0300
0x76f55d1e ff12             CALL DWORD [EDX]
0x76f55d20 c20800           RET 0x8
0x76f55d23 837d0c00         CMP DWORD [EBP+0xc], 0x0
0x76f55d27 0f               DB 0xf
0x76f55d28 853e             TEST [ESI], EDI
0x76f55d2a a801             TEST AL, 0x1

Disassembly(1):
0x880807 f605e836890004   TEST BYTE [0x8936e8], 0x4
0x88080e 56               PUSH ESI
0x88080f 8b74240c         MOV ESI, [ESP+0xc]
0x880813 57               PUSH EDI
0x880814 8b7c240c         MOV EDI, [ESP+0xc]
0x880818 7450             JZ 0x88086a
0x88081a e859a80000       CALL 0x88b078

************************************************************************
Hook mode: Usermode
Hook type: Inline/Trampoline
Process: 2784 (iexplore.exe)
Victim module: USER32.dll (0x76f40000 - 0x77009000)
Function: USER32.dll!CallWindowProcA at 0x76f72bd3
Hook address: 0x87564b
Hooking module: <unknown>

Disassembly(0):
0x76f72bd3 e9732a9089       JMP 0x87564b
0x76f72bd8 6a01             PUSH 0x1
0x76f72bda ff7518           PUSH DWORD [EBP+0x18]
0x76f72bdd ff7514           PUSH DWORD [EBP+0x14]
0x76f72be0 ff7510           PUSH DWORD [EBP+0x10]
0x76f72be3 ff750c           PUSH DWORD [EBP+0xc]
0x76f72be6 ff7508           PUSH DWORD [EBP+0x8]
0x76f72be9 e8               DB 0xe8
0x76f72bea f2               DB 0xf2

Disassembly(1):
0x87564b 55               PUSH EBP
0x87564c 8bec             MOV EBP, ESP
0x87564e f605e836890004   TEST BYTE [0x8936e8], 0x4
0x875655 56               PUSH ESI
0x875656 8b7510           MOV ESI, [EBP+0x10]
0x875659 7421             JZ 0x87567c
0x87565b e8185a0100       CALL 0x88b078
0x875660 84c0             TEST AL, AL
0x875662 74               DB 0x74

************************************************************************
Hook mode: Usermode
Hook type: Inline/Trampoline
Process: 2784 (iexplore.exe)
Victim module: USER32.dll (0x76f40000 - 0x77009000)
Function: USER32.dll!CallWindowProcW at 0x76f51b3c
Hook address: 0x875602
Hooking module: <unknown>

Disassembly(0):
0x76f51b3c e9c13a9289       JMP 0x875602
0x76f51b41 6a00             PUSH 0x0
0x76f51b43 ff7518           PUSH DWORD [EBP+0x18]
0x76f51b46 ff7514           PUSH DWORD [EBP+0x14]
0x76f51b49 ff7510           PUSH DWORD [EBP+0x10]
0x76f51b4c ff750c           PUSH DWORD [EBP+0xc]
0x76f51b4f ff7508           PUSH DWORD [EBP+0x8]
0x76f51b52 e8               DB 0xe8
0x76f51b53 89               DB 0x89

Disassembly(1):
0x875602 55               PUSH EBP
0x875603 8bec             MOV EBP, ESP
0x875605 f605e836890004   TEST BYTE [0x8936e8], 0x4
0x87560c 56               PUSH ESI
0x87560d 8b7510           MOV ESI, [EBP+0x10]
0x875610 7421             JZ 0x875633
0x875612 e8615a0100       CALL 0x88b078
0x875617 84c0             TEST AL, AL
0x875619 74               DB 0x74

************************************************************************
Hook mode: Usermode
Hook type: Inline/Trampoline
Process: 2784 (iexplore.exe)
Victim module: USER32.dll (0x76f40000 - 0x77009000)
Function: USER32.dll!DefDlgProcA at 0x76f671e4
Hook address: 0x87549e
Hooking module: <unknown>

Disassembly(0):
0x76f671e4 e9b5e29089       JMP 0x87549e
0x76f671e9 8b4d08           MOV ECX, [EBP+0x8]
0x76f671ec e81f53ffff       CALL 0x76f5c510
0x76f671f1 85c0             TEST EAX, EAX
0x76f671f3 7411             JZ 0x76f67206
0x76f671f5 6a01             PUSH 0x1
0x76f671f7 ff7514           PUSH DWORD [EBP+0x14]
0x76f671fa ff               DB 0xff
0x76f671fb 75               DB 0x75

Disassembly(1):
0x87549e 55               PUSH EBP
0x87549f 8bec             MOV EBP, ESP
0x8754a1 f605e836890004   TEST BYTE [0x8936e8], 0x4
0x8754a8 56               PUSH ESI
0x8754a9 8b750c           MOV ESI, [EBP+0xc]
0x8754ac 7421             JZ 0x8754cf
0x8754ae e8c55b0100       CALL 0x88b078
0x8754b3 84c0             TEST AL, AL
0x8754b5 74               DB 0x74

************************************************************************
Hook mode: Usermode
Hook type: Inline/Trampoline
Process: 2784 (iexplore.exe)
Victim module: USER32.dll (0x76f40000 - 0x77009000)
Function: USER32.dll!DefDlgProcW at 0x76f75bc1
Hook address: 0x875458
Hooking module: <unknown>

Disassembly(0):
0x76f75bc1 e992f88f89       JMP 0x875458
0x76f75bc6 8b4d08           MOV ECX, [EBP+0x8]
0x76f75bc9 e84269feff       CALL 0x76f5c510
0x76f75bce 85c0             TEST EAX, EAX
0x76f75bd0 7411             JZ 0x76f75be3
0x76f75bd2 6a00             PUSH 0x0
0x76f75bd4 ff7514           PUSH DWORD [EBP+0x14]
0x76f75bd7 ff               DB 0xff
0x76f75bd8 75               DB 0x75

Disassembly(1):
0x875458 55               PUSH EBP
0x875459 8bec             MOV EBP, ESP
0x87545b f605e836890004   TEST BYTE [0x8936e8], 0x4
0x875462 56               PUSH ESI
0x875463 8b750c           MOV ESI, [EBP+0xc]
0x875466 7421             JZ 0x875489
0x875468 e80b5c0100       CALL 0x88b078
0x87546d 84c0             TEST AL, AL
0x87546f 74               DB 0x74

************************************************************************
Hook mode: Usermode
Hook type: Inline/Trampoline
Process: 2784 (iexplore.exe)
Victim module: USER32.dll (0x76f40000 - 0x77009000)
Function: USER32.dll!DefFrameProcA at 0x76f725b7
Hook address: 0x87552d
Hooking module: <unknown>

Disassembly(0):
0x76f725b7 e9712f9089       JMP 0x87552d
0x76f725bc 6a01             PUSH 0x1
0x76f725be ff7518           PUSH DWORD [EBP+0x18]
0x76f725c1 ff7514           PUSH DWORD [EBP+0x14]
0x76f725c4 ff7510           PUSH DWORD [EBP+0x10]
0x76f725c7 ff750c           PUSH DWORD [EBP+0xc]
0x76f725ca ff7508           PUSH DWORD [EBP+0x8]
0x76f725cd e8               DB 0xe8
0x76f725ce b9               DB 0xb9

Disassembly(1):
0x87552d 55               PUSH EBP
0x87552e 8bec             MOV EBP, ESP
0x875530 f605e836890004   TEST BYTE [0x8936e8], 0x4
0x875537 56               PUSH ESI
0x875538 8b7510           MOV ESI, [EBP+0x10]
0x87553b 7421             JZ 0x87555e
0x87553d e8365b0100       CALL 0x88b078
0x875542 84c0             TEST AL, AL
0x875544 74               DB 0x74

************************************************************************
Hook mode: Usermode
Hook type: Inline/Trampoline
Process: 2784 (iexplore.exe)
Victim module: USER32.dll (0x76f40000 - 0x77009000)
Function: USER32.dll!DefFrameProcW at 0x76f7152b
Hook address: 0x8754e4
Hooking module: <unknown>

Disassembly(0):
0x76f7152b e9b43f9089       JMP 0x8754e4
0x76f71530 6a00             PUSH 0x0
0x76f71532 ff7518           PUSH DWORD [EBP+0x18]
0x76f71535 ff7514           PUSH DWORD [EBP+0x14]
0x76f71538 ff7510           PUSH DWORD [EBP+0x10]
0x76f7153b ff750c           PUSH DWORD [EBP+0xc]
0x76f7153e ff7508           PUSH DWORD [EBP+0x8]
0x76f71541 e8               DB 0xe8
0x76f71542 45               INC EBP

Disassembly(1):
0x8754e4 55               PUSH EBP
0x8754e5 8bec             MOV EBP, ESP
0x8754e7 f605e836890004   TEST BYTE [0x8936e8], 0x4
0x8754ee 56               PUSH ESI
0x8754ef 8b7510           MOV ESI, [EBP+0x10]
0x8754f2 7421             JZ 0x875515
0x8754f4 e87f5b0100       CALL 0x88b078
0x8754f9 84c0             TEST AL, AL
0x8754fb 74               DB 0x74

************************************************************************
Hook mode: Usermode
Hook type: Inline/Trampoline
Process: 2784 (iexplore.exe)
Victim module: USER32.dll (0x76f40000 - 0x77009000)
Function: USER32.dll!DefMDIChildProcA at 0x76f725db
Hook address: 0x8755bc
Hooking module: <unknown>

Disassembly(0):
0x76f725db e9dc2f9089       JMP 0x8755bc
0x76f725e0 6a01             PUSH 0x1
0x76f725e2 ff7514           PUSH DWORD [EBP+0x14]
0x76f725e5 ff7510           PUSH DWORD [EBP+0x10]
0x76f725e8 ff750c           PUSH DWORD [EBP+0xc]
0x76f725eb ff7508           PUSH DWORD [EBP+0x8]
0x76f725ee e892f6ffff       CALL 0x76f71c85

Disassembly(1):
0x8755bc 55               PUSH EBP
0x8755bd 8bec             MOV EBP, ESP
0x8755bf f605e836890004   TEST BYTE [0x8936e8], 0x4
0x8755c6 56               PUSH ESI
0x8755c7 8b750c           MOV ESI, [EBP+0xc]
0x8755ca 7421             JZ 0x8755ed
0x8755cc e8a75a0100       CALL 0x88b078
0x8755d1 84c0             TEST AL, AL
0x8755d3 74               DB 0x74

************************************************************************
Hook mode: Usermode
Hook type: Inline/Trampoline
Process: 2784 (iexplore.exe)
Victim module: USER32.dll (0x76f40000 - 0x77009000)
Function: USER32.dll!DefMDIChildProcW at 0x76f7150a
Hook address: 0x875576
Hooking module: <unknown>

Disassembly(0):
0x76f7150a e967409089       JMP 0x875576
0x76f7150f 6a00             PUSH 0x0
0x76f71511 ff7514           PUSH DWORD [EBP+0x14]
0x76f71514 ff7510           PUSH DWORD [EBP+0x10]
0x76f71517 ff750c           PUSH DWORD [EBP+0xc]
0x76f7151a ff7508           PUSH DWORD [EBP+0x8]
0x76f7151d e863070000       CALL 0x76f71c85

Disassembly(1):
0x875576 55               PUSH EBP
0x875577 8bec             MOV EBP, ESP
0x875579 f605e836890004   TEST BYTE [0x8936e8], 0x4
0x875580 56               PUSH ESI
0x875581 8b750c           MOV ESI, [EBP+0xc]
0x875584 7421             JZ 0x8755a7
0x875586 e8ed5a0100       CALL 0x88b078
0x87558b 84c0             TEST AL, AL
0x87558d 74               DB 0x74

************************************************************************
Hook mode: Usermode
Hook type: Inline/Trampoline
Process: 2784 (iexplore.exe)
Victim module: USER32.dll (0x76f40000 - 0x77009000)
Function: USER32.dll!DefWindowProcA at 0x76f4bb1c
Hook address: 0x875412
Hooking module: <unknown>

Disassembly(0):
0x76f4bb1c e9f1989289       JMP 0x875412
0x76f4bb21 f4               HLT
0x76f4bb22 76e8             JBE 0x76f4bb0c
0x76f4bb24 f8               CLC
0x76f4bb25 0801             OR [ECX], AL
0x76f4bb27 00e8             ADD AL, CH
0x76f4bb29 830901           OR DWORD [ECX], 0x1
0x76f4bb2c 00833dd89afa     ADD [EBX-0x56527c3], AL
0x76f4bb32 7600             JBE 0x76f4bb34

Disassembly(1):
0x875412 55               PUSH EBP
0x875413 8bec             MOV EBP, ESP
0x875415 f605e836890004   TEST BYTE [0x8936e8], 0x4
0x87541c 56               PUSH ESI
0x87541d 8b750c           MOV ESI, [EBP+0xc]
0x875420 7421             JZ 0x875443
0x875422 e8515c0100       CALL 0x88b078
0x875427 84c0             TEST AL, AL
0x875429 74               DB 0x74

************************************************************************
Hook mode: Usermode
Hook type: Inline/Trampoline
Process: 2784 (iexplore.exe)
Victim module: USER32.dll (0x76f40000 - 0x77009000)
Function: USER32.dll!DefWindowProcW at 0x76f5507d
Hook address: 0x8753cc
Hooking module: <unknown>

Disassembly(0):
0x76f5507d e94a039289       JMP 0x8753cc
0x76f55082 f5               CMC
0x76f55083 76e8             JBE 0x76f5506d
0x76f55085 97               XCHG EDI, EAX
0x76f55086 7300             JAE 0x76f55088
0x76f55088 00e8             ADD AL, CH
0x76f5508a 22740000         AND DH, [EAX+EAX+0x0]
0x76f5508e 833dd89afa7600   CMP DWORD [0x76fa9ad8], 0x0

Disassembly(1):
0x8753cc 55               PUSH EBP
0x8753cd 8bec             MOV EBP, ESP
0x8753cf f605e836890004   TEST BYTE [0x8936e8], 0x4
0x8753d6 56               PUSH ESI
0x8753d7 8b750c           MOV ESI, [EBP+0xc]
0x8753da 7421             JZ 0x8753fd
0x8753dc e8975c0100       CALL 0x88b078
0x8753e1 84c0             TEST AL, AL
0x8753e3 74               DB 0x74

************************************************************************
Hook mode: Usermode
Hook type: Inline/Trampoline
Process: 2784 (iexplore.exe)
Victim module: USER32.dll (0x76f40000 - 0x77009000)
Function: USER32.dll!EndPaint at 0x76f55d42
Hook address: 0x880877
Hooking module: <unknown>

Disassembly(0):
0x76f55d42 e930ab9289       JMP 0x880877
0x76f55d47 ba0003fe7f       MOV EDX, 0x7ffe0300
0x76f55d4c ff12             CALL DWORD [EDX]
0x76f55d4e c20800           RET 0x8
0x76f55d51 90               NOP
0x76f55d52 90               NOP
0x76f55d53 90               NOP
0x76f55d54 90               NOP
0x76f55d55 90               NOP
0x76f55d56 8bff             MOV EDI, EDI
0x76f55d58 55               PUSH EBP
0x76f55d59 8b               DB 0x8b

Disassembly(1):
0x880877 f605e836890004   TEST BYTE [0x8936e8], 0x4
0x88087e 56               PUSH ESI
0x88087f 8b742408         MOV ESI, [ESP+0x8]
0x880883 7423             JZ 0x8808a8
0x880885 e8eea70000       CALL 0x88b078
0x88088a 84c0             TEST AL, AL
0x88088c 741a             JZ 0x8808a8
0x88088e ff               DB 0xff

************************************************************************
Hook mode: Usermode
Hook type: Inline/Trampoline
Process: 2784 (iexplore.exe)
Victim module: USER32.dll (0x76f40000 - 0x77009000)
Function: USER32.dll!GetCapture at 0x76f49dc7
Hook address: 0x87d9b3
Hooking module: <unknown>

Disassembly(0):
0x76f49dc7 e9e73b9389       JMP 0x87d9b3
0x76f49dcc 83b8080b000000   CMP DWORD [EAX+0xb08], 0x0
0x76f49dd3 0f8582c80200     JNZ 0x76f7665b
0x76f49dd9 33c0             XOR EAX, EAX
0x76f49ddb c3               RET
0x76f49ddc 3b5d0c           CMP EBX, [EBP+0xc]

Disassembly(1):
0x87d9b3 f605e836890004   TEST BYTE [0x8936e8], 0x4
0x87d9ba 56               PUSH ESI
0x87d9bb 744b             JZ 0x87da08
0x87d9bd e8b6d60000       CALL 0x88b078
0x87d9c2 84c0             TEST AL, AL
0x87d9c4 7442             JZ 0x87da08
0x87d9c6 ff               DB 0xff
0x87d9c7 15               DB 0x15
0x87d9c8 7412             JZ 0x87d9dc
0x87d9ca 87               DB 0x87

************************************************************************
Hook mode: Usermode
Hook type: Inline/Trampoline
Process: 2784 (iexplore.exe)
Victim module: USER32.dll (0x76f40000 - 0x77009000)
Function: USER32.dll!GetClipboardData at 0x76f62ba7
Hook address: 0x87fa85
Hooking module: <unknown>

Disassembly(0):
0x76f62ba7 e9d9ce9189       JMP 0x87fa85
0x76f62bac 83ec2c           SUB ESP, 0x2c
0x76f62baf 57               PUSH EDI
0x76f62bb0 8d45d4           LEA EAX, [EBP-0x2c]
0x76f62bb3 50               PUSH EAX
0x76f62bb4 ff7508           PUSH DWORD [EBP+0x8]
0x76f62bb7 e8d7ffffff       CALL 0x76f62b93
0x76f62bbc 33ff             XOR EDI, EDI
0x76f62bbe 89               DB 0x89

Disassembly(1):
0x87fa85 55               PUSH EBP
0x87fa86 8bec             MOV EBP, ESP
0x87fa88 56               PUSH ESI
0x87fa89 8b7508           MOV ESI, [EBP+0x8]
0x87fa8c 57               PUSH EDI
0x87fa8d 56               PUSH ESI
0x87fa8e ff1544148700     CALL DWORD [0x871444]
0x87fa94 8bf8             MOV EDI, EAX
0x87fa96 897d08           MOV [EBP+0x8], EDI
0x87fa99 e8               DB 0xe8
0x87fa9a da               DB 0xda
0x87fa9b b500             MOV CH, 0x0

************************************************************************
Hook mode: Usermode
Hook type: Inline/Trampoline
Process: 2784 (iexplore.exe)
Victim module: USER32.dll (0x76f40000 - 0x77009000)
Function: USER32.dll!GetCursorPos at 0x76f4a4b3
Hook address: 0x87d885
Hooking module: <unknown>

Disassembly(0):
0x76f4a4b3 e9cd339389       JMP 0x87d885
0x76f4a4b8 6a69             PUSH 0x69
0x76f4a4ba 6a01             PUSH 0x1
0x76f4a4bc ff7508           PUSH DWORD [EBP+0x8]
0x76f4a4bf e808370000       CALL 0x76f4dbcc
0x76f4a4c4 5d               POP EBP
0x76f4a4c5 c20400           RET 0x4
0x76f4a4c8 90               NOP
0x76f4a4c9 90               NOP
0x76f4a4ca 90               NOP

Disassembly(1):
0x87d885 f605e836890004   TEST BYTE [0x8936e8], 0x4
0x87d88c 7438             JZ 0x87d8c6
0x87d88e e8e5d70000       CALL 0x88b078
0x87d893 84c0             TEST AL, AL
0x87d895 742f             JZ 0x87d8c6
0x87d897 8b442404         MOV EAX, [ESP+0x4]
0x87d89b 85c0             TEST EAX, EAX

************************************************************************
Hook mode: Usermode
Hook type: Inline/Trampoline
Process: 2784 (iexplore.exe)
Victim module: USER32.dll (0x76f40000 - 0x77009000)
Function: USER32.dll!GetDC at 0x76f5544c
Hook address: 0x880912
Hooking module: <unknown>

Disassembly(0):
0x76f5544c e9c1b49289       JMP 0x880912
0x76f55451 ba0003fe7f       MOV EDX, 0x7ffe0300
0x76f55456 ff12             CALL DWORD [EDX]
0x76f55458 c20400           RET 0x4
0x76f5545b 90               NOP
0x76f5545c 90               NOP
0x76f5545d 90               NOP
0x76f5545e 90               NOP
0x76f5545f 90               NOP
0x76f55460 8bff             MOV EDI, EDI
0x76f55462 55               PUSH EBP
0x76f55463 8b               DB 0x8b

Disassembly(1):
0x880912 f605e836890004   TEST BYTE [0x8936e8], 0x4
0x880919 56               PUSH ESI
0x88091a 8b742408         MOV ESI, [ESP+0x8]
0x88091e 7426             JZ 0x880946
0x880920 e853a70000       CALL 0x88b078
0x880925 84c0             TEST AL, AL
0x880927 741d             JZ 0x880946
0x880929 ff               DB 0xff

************************************************************************
Hook mode: Usermode
Hook type: Inline/Trampoline
Process: 2784 (iexplore.exe)
Victim module: USER32.dll (0x76f40000 - 0x77009000)
Function: USER32.dll!GetDCEx at 0x76f52d57
Hook address: 0x8808b7
Hooking module: <unknown>

Disassembly(0):
0x76f52d57 e95bdb9289       JMP 0x8808b7
0x76f52d5c ba0003fe7f       MOV EDX, 0x7ffe0300
0x76f52d61 ff12             CALL DWORD [EDX]
0x76f52d63 c20c00           RET 0xc
0x76f52d66 85ff             TEST EDI, EDI
0x76f52d68 0f84200c0000     JZ 0x76f5398e
0x76f52d6e 85               DB 0x85

Disassembly(1):
0x8808b7 55               PUSH EBP
0x8808b8 8bec             MOV EBP, ESP
0x8808ba f605e836890004   TEST BYTE [0x8936e8], 0x4
0x8808c1 56               PUSH ESI
0x8808c2 57               PUSH EDI
0x8808c3 8b7d08           MOV EDI, [EBP+0x8]
0x8808c6 7437             JZ 0x8808ff
0x8808c8 e8aba70000       CALL 0x88b078
0x8808cd 84c0             TEST AL, AL

************************************************************************
Hook mode: Usermode
Hook type: Inline/Trampoline
Process: 2784 (iexplore.exe)
Victim module: USER32.dll (0x76f40000 - 0x77009000)
Function: USER32.dll!GetMessageA at 0x76f51899
Hook address: 0x87da7a
Hooking module: <unknown>

Disassembly(0):
0x76f51899 e9dcc19289       JMP 0x87da7a
0x76f5189e 8b5510           MOV EDX, [EBP+0x10]
0x76f518a1 8b4d14           MOV ECX, [EBP+0x14]
0x76f518a4 56               PUSH ESI
0x76f518a5 8bf2             MOV ESI, EDX
0x76f518a7 0bf1             OR ESI, ECX
0x76f518a9 b80000feff       MOV EAX, 0xfffe0000
0x76f518ae 85f0             TEST EAX, ESI
0x76f518b0 0f               DB 0xf

Disassembly(1):
0x87da7a 56               PUSH ESI
0x87da7b 8b742408         MOV ESI, [ESP+0x8]
0x87da7f 57               PUSH EDI
0x87da80 ff742418         PUSH DWORD [ESP+0x18]
0x87da84 ff742418         PUSH DWORD [ESP+0x18]
0x87da88 ff742418         PUSH DWORD [ESP+0x18]
0x87da8c 56               PUSH ESI
0x87da8d ff               DB 0xff
0x87da8e 15               DB 0x15
0x87da8f 98               CWDE
0x87da90 1487             ADC AL, 0x87

************************************************************************
Hook mode: Usermode
Hook type: Inline/Trampoline
Process: 2784 (iexplore.exe)
Victim module: USER32.dll (0x76f40000 - 0x77009000)
Function: USER32.dll!GetMessagePos at 0x76f76703
Hook address: 0x87d853
Hooking module: <unknown>

Disassembly(0):
0x76f76703 e94b719089       JMP 0x87d853
0x76f76708 fe               DB 0xfe
0x76f76709 ffc3             INC EBX
0x76f7670b 83650c00         AND DWORD [EBP+0xc], 0x0
0x76f7670f e9a1f0fdff       JMP 0x76f557b5
0x76f76714 8b430c           MOV EAX, [EBX+0xc]
0x76f76717 3bc2             CMP EAX, EDX
0x76f76719 0f               DB 0xf
0x76f7671a 85               DB 0x85

Disassembly(1):
0x87d853 f605e836890004   TEST BYTE [0x8936e8], 0x4
0x87d85a 7423             JZ 0x87d87f
0x87d85c e817d80000       CALL 0x88b078
0x87d861 84c0             TEST AL, AL
0x87d863 741a             JZ 0x87d87f
0x87d865 8b0db8238900     MOV ECX, [0x8923b8]

************************************************************************
Hook mode: Usermode
Hook type: Inline/Trampoline
Process: 2784 (iexplore.exe)
Victim module: USER32.dll (0x76f40000 - 0x77009000)
Function: USER32.dll!GetMessageW at 0x76f5cde8
Hook address: 0x87da52
Hooking module: <unknown>

Disassembly(0):
0x76f5cde8 e9650c9289       JMP 0x87da52
0x76f5cded 8b5510           MOV EDX, [EBP+0x10]
0x76f5cdf0 8b4d14           MOV ECX, [EBP+0x14]
0x76f5cdf3 0bd1             OR EDX, ECX
0x76f5cdf5 b80000feff       MOV EAX, 0xfffe0000
0x76f5cdfa 85d0             TEST EAX, EDX
0x76f5cdfc 0f               DB 0xf
0x76f5cdfd 857801           TEST [EAX+0x1], EDI

Disassembly(1):
0x87da52 56               PUSH ESI
0x87da53 8b742408         MOV ESI, [ESP+0x8]
0x87da57 57               PUSH EDI
0x87da58 ff742418         PUSH DWORD [ESP+0x18]
0x87da5c ff742418         PUSH DWORD [ESP+0x18]
0x87da60 ff742418         PUSH DWORD [ESP+0x18]
0x87da64 56               PUSH ESI
0x87da65 ff               DB 0xff
0x87da66 15               DB 0x15
0x87da67 101487           ADC [EDI+EAX*4], DL

************************************************************************
Hook mode: Usermode
Hook type: Inline/Trampoline
Process: 2784 (iexplore.exe)
Victim module: USER32.dll (0x76f40000 - 0x77009000)
Function: USER32.dll!GetUpdateRect at 0x76f4a575
Hook address: 0x8809d0
Hooking module: <unknown>

Disassembly(0):
0x76f4a575 e956649389       JMP 0x8809d0
0x76f4a57a 8b4d08           MOV ECX, [EBP+0x8]
0x76f4a57d e88e1f0100       CALL 0x76f5c510
0x76f4a582 85c0             TEST EAX, EAX
0x76f4a584 7423             JZ 0x76f4a5a9
0x76f4a586 83786800         CMP DWORD [EAX+0x68], 0x0
0x76f4a58a 7535             JNZ 0x76f4a5c1
0x76f4a58c f6               DB 0xf6

Disassembly(1):
0x8809d0 55               PUSH EBP
0x8809d1 8bec             MOV EBP, ESP
0x8809d3 f605e836890004   TEST BYTE [0x8936e8], 0x4
0x8809da 53               PUSH EBX
0x8809db 8b5d08           MOV EBX, [EBP+0x8]
0x8809de 56               PUSH ESI
0x8809df 746f             JZ 0x880a50
0x8809e1 e892a60000       CALL 0x88b078
0x8809e6 84c0             TEST AL, AL

************************************************************************
Hook mode: Usermode
Hook type: Inline/Trampoline
Process: 2784 (iexplore.exe)
Victim module: USER32.dll (0x76f40000 - 0x77009000)
Function: USER32.dll!GetUpdateRgn at 0x76f71c07
Hook address: 0x880a63
Hooking module: <unknown>

Disassembly(0):
0x76f71c07 e957ee9089       JMP 0x880a63
0x76f71c0c 56               PUSH ESI
0x76f71c0d 33f6             XOR ESI, ESI
0x76f71c0f 39750c           CMP [EBP+0xc], ESI
0x76f71c12 0f8415710000     JZ 0x76f78d2d
0x76f71c18 8b4d08           MOV ECX, [EBP+0x8]
0x76f71c1b e8               DB 0xe8
0x76f71c1c f0a8fe           TEST AL, 0xfe

Disassembly(1):
0x880a63 55               PUSH EBP
0x880a64 8bec             MOV EBP, ESP
0x880a66 f605e836890004   TEST BYTE [0x8936e8], 0x4
0x880a6d 53               PUSH EBX
0x880a6e 8b5d08           MOV EBX, [EBP+0x8]
0x880a71 56               PUSH ESI
0x880a72 7470             JZ 0x880ae4
0x880a74 e8ffa50000       CALL 0x88b078
0x880a79 84c0             TEST AL, AL

************************************************************************
Hook mode: Usermode
Hook type: Inline/Trampoline
Process: 2784 (iexplore.exe)
Victim module: USER32.dll (0x76f40000 - 0x77009000)
Function: USER32.dll!GetWindowDC at 0x76f54ab7
Hook address: 0x880951
Hooking module: <unknown>

Disassembly(0):
0x76f54ab7 e995be9289       JMP 0x880951
0x76f54abc ba0003fe7f       MOV EDX, 0x7ffe0300
0x76f54ac1 ff12             CALL DWORD [EDX]
0x76f54ac3 c20400           RET 0x4
0x76f54ac6 80faff           CMP DL, 0xff
0x76f54ac9 0f85cc080000     JNZ 0x76f5539b

Disassembly(1):
0x880951 f605e836890004   TEST BYTE [0x8936e8], 0x4
0x880958 56               PUSH ESI
0x880959 8b742408         MOV ESI, [ESP+0x8]
0x88095d 7426             JZ 0x880985
0x88095f e814a70000       CALL 0x88b078
0x880964 84c0             TEST AL, AL
0x880966 741d             JZ 0x880985
0x880968 ff               DB 0xff

************************************************************************
Hook mode: Usermode
Hook type: Inline/Trampoline
Process: 2784 (iexplore.exe)
Victim module: USER32.dll (0x76f40000 - 0x77009000)
Function: USER32.dll!OpenInputDesktop at 0x76f45c39
Hook address: 0x87535e
Hooking module: <unknown>

Disassembly(0):
0x76f45c39 e920f79289       JMP 0x87535e
0x76f45c3e ba0003fe7f       MOV EDX, 0x7ffe0300
0x76f45c43 ff12             CALL DWORD [EDX]
0x76f45c45 c20c00           RET 0xc
0x76f45c48 0000             ADD [EAX], AL
0x76f45c4a 895de0           MOV [EBP-0x20], EBX
0x76f45c4d e9               DB 0xe9
0x76f45c4e 1e               PUSH DS
0x76f45c4f 3d               DB 0x3d
0x76f45c50 00               DB 0x0

Disassembly(1):
0x87535e 55               PUSH EBP
0x87535f 8bec             MOV EBP, ESP
0x875361 83ec64           SUB ESP, 0x64
0x875364 f605e836890004   TEST BYTE [0x8936e8], 0x4
0x87536b 742e             JZ 0x87539b
0x87536d e8065d0100       CALL 0x88b078
0x875372 84c0             TEST AL, AL
0x875374 7425             JZ 0x87539b

************************************************************************
Hook mode: Usermode
Hook type: Inline/Trampoline
Process: 2784 (iexplore.exe)
Victim module: USER32.dll (0x76f40000 - 0x77009000)
Function: USER32.dll!PeekMessageA at 0x76f519a5
Hook address: 0x87dacd
Hooking module: <unknown>

Disassembly(0):
0x76f519a5 e923c19289       JMP 0x87dacd
0x76f519aa 53               PUSH EBX
0x76f519ab 56               PUSH ESI
0x76f519ac 648b3518000000   MOV ESI, [FS:0x18]
0x76f519b3 33c9             XOR ECX, ECX
0x76f519b5 81c6cc060000     ADD ESI, 0x6cc
0x76f519bb 57               PUSH EDI
0x76f519bc 39               DB 0x39

Disassembly(1):
0x87dacd 55               PUSH EBP
0x87dace 8bec             MOV EBP, ESP
0x87dad0 56               PUSH ESI
0x87dad1 8b7508           MOV ESI, [EBP+0x8]
0x87dad4 57               PUSH EDI
0x87dad5 ff7518           PUSH DWORD [EBP+0x18]
0x87dad8 ff7514           PUSH DWORD [EBP+0x14]
0x87dadb ff7510           PUSH DWORD [EBP+0x10]
0x87dade ff750c           PUSH DWORD [EBP+0xc]
0x87dae1 56               PUSH ESI
0x87dae2 ff               DB 0xff
0x87dae3 15               DB 0x15
0x87dae4 54               PUSH ESP

************************************************************************
Hook mode: Usermode
Hook type: Inline/Trampoline
Process: 2784 (iexplore.exe)
Victim module: USER32.dll (0x76f40000 - 0x77009000)
Function: USER32.dll!PeekMessageW at 0x76f5634a
Hook address: 0x87daa2
Hooking module: <unknown>

Disassembly(0):
0x76f5634a e953779289       JMP 0x87daa2
0x76f5634f 53               PUSH EBX
0x76f56350 56               PUSH ESI
0x76f56351 648b3518000000   MOV ESI, [FS:0x18]
0x76f56358 33c9             XOR ECX, ECX
0x76f5635a 81c6cc060000     ADD ESI, 0x6cc
0x76f56360 57               PUSH EDI
0x76f56361 39               DB 0x39

Disassembly(1):
0x87daa2 55               PUSH EBP
0x87daa3 8bec             MOV EBP, ESP
0x87daa5 56               PUSH ESI
0x87daa6 8b7508           MOV ESI, [EBP+0x8]
0x87daa9 57               PUSH EDI
0x87daaa ff7518           PUSH DWORD [EBP+0x18]
0x87daad ff7514           PUSH DWORD [EBP+0x14]
0x87dab0 ff7510           PUSH DWORD [EBP+0x10]
0x87dab3 ff750c           PUSH DWORD [EBP+0xc]
0x87dab6 56               PUSH ESI
0x87dab7 ff               DB 0xff
0x87dab8 15               DB 0x15
0x87dab9 50               PUSH EAX

************************************************************************
Hook mode: Usermode
Hook type: Inline/Trampoline
Process: 2784 (iexplore.exe)
Victim module: USER32.dll (0x76f40000 - 0x77009000)
Function: USER32.dll!RegisterClassA at 0x76f4bc6a
Hook address: 0x87571d
Hooking module: <unknown>

Disassembly(0):
0x76f4bc6a e9ae9a9289       JMP 0x87571d
0x76f4bc6f 83ec30           SUB ESP, 0x30
0x76f4bc72 8b4508           MOV EAX, [EBP+0x8]
0x76f4bc75 56               PUSH ESI
0x76f4bc76 57               PUSH EDI
0x76f4bc77 6a09             PUSH 0x9
0x76f4bc79 59               POP ECX
0x76f4bc7a 8d7004           LEA ESI, [EAX+0x4]
0x76f4bc7d 8b00             MOV EAX, [EAX]
0x76f4bc7f 6a01             PUSH 0x1
0x76f4bc81 8d               DB 0x8d

Disassembly(1):
0x87571d 55               PUSH EBP
0x87571e 8bec             MOV EBP, ESP
0x875720 83ec28           SUB ESP, 0x28
0x875723 f605e836890004   TEST BYTE [0x8936e8], 0x4
0x87572a 56               PUSH ESI
0x87572b 8b7508           MOV ESI, [EBP+0x8]
0x87572e 742e             JZ 0x87575e
0x875730 e843590100       CALL 0x88b078

************************************************************************
Hook mode: Usermode
Hook type: Inline/Trampoline
Process: 2784 (iexplore.exe)
Victim module: USER32.dll (0x76f40000 - 0x77009000)
Function: USER32.dll!RegisterClassExA at 0x76f46293
Hook address: 0x8757bc
Hooking module: <unknown>

Disassembly(0):
0x76f46293 e924f59289       JMP 0x8757bc
0x76f46298 8b4508           MOV EAX, [EBP+0x8]
0x76f4629b 833830           CMP DWORD [EAX], 0x30
0x76f4629e 0f853e0a0400     JNZ 0x76f86ce2
0x76f462a4 6a01             PUSH 0x1
0x76f462a6 6880000000       PUSH DWORD 0x80

Disassembly(1):
0x8757bc 55               PUSH EBP
0x8757bd 8bec             MOV EBP, ESP
0x8757bf 83ec30           SUB ESP, 0x30
0x8757c2 f605e836890004   TEST BYTE [0x8936e8], 0x4
0x8757c9 56               PUSH ESI
0x8757ca 8b7508           MOV ESI, [EBP+0x8]
0x8757cd 7433             JZ 0x875802
0x8757cf e8a4580100       CALL 0x88b078

************************************************************************
Hook mode: Usermode
Hook type: Inline/Trampoline
Process: 2784 (iexplore.exe)
Victim module: USER32.dll (0x76f40000 - 0x77009000)
Function: USER32.dll!RegisterClassExW at 0x76f50162
Hook address: 0x87576a
Hooking module: <unknown>

Disassembly(0):
0x76f50162 e903569289       JMP 0x87576a
0x76f50167 8b4508           MOV EAX, [EBP+0x8]
0x76f5016a 833830           CMP DWORD [EAX], 0x30
0x76f5016d 0f85899e0200     JNZ 0x76f79ffc
0x76f50173 6a01             PUSH 0x1
0x76f50175 6880000000       PUSH DWORD 0x80

Disassembly(1):
0x87576a 55               PUSH EBP
0x87576b 8bec             MOV EBP, ESP
0x87576d 83ec30           SUB ESP, 0x30
0x875770 f605e836890004   TEST BYTE [0x8936e8], 0x4
0x875777 56               PUSH ESI
0x875778 8b7508           MOV ESI, [EBP+0x8]
0x87577b 7433             JZ 0x8757b0
0x87577d e8f6580100       CALL 0x88b078

************************************************************************
Hook mode: Usermode
Hook type: Inline/Trampoline
Process: 2784 (iexplore.exe)
Victim module: USER32.dll (0x76f40000 - 0x77009000)
Function: USER32.dll!RegisterClassW at 0x76f4ed4a
Hook address: 0x8756d0
Hooking module: <unknown>

Disassembly(0):
0x76f4ed4a e981699289       JMP 0x8756d0
0x76f4ed4f 83ec30           SUB ESP, 0x30
0x76f4ed52 8b4508           MOV EAX, [EBP+0x8]
0x76f4ed55 56               PUSH ESI
0x76f4ed56 57               PUSH EDI
0x76f4ed57 6a09             PUSH 0x9
0x76f4ed59 59               POP ECX
0x76f4ed5a 8d7004           LEA ESI, [EAX+0x4]
0x76f4ed5d 8b00             MOV EAX, [EAX]
0x76f4ed5f 6a01             PUSH 0x1
0x76f4ed61 8d               DB 0x8d

Disassembly(1):
0x8756d0 55               PUSH EBP
0x8756d1 8bec             MOV EBP, ESP
0x8756d3 83ec28           SUB ESP, 0x28
0x8756d6 f605e836890004   TEST BYTE [0x8936e8], 0x4
0x8756dd 56               PUSH ESI
0x8756de 8b7508           MOV ESI, [EBP+0x8]
0x8756e1 742e             JZ 0x875711
0x8756e3 e890590100       CALL 0x88b078

************************************************************************
Hook mode: Usermode
Hook type: Inline/Trampoline
Process: 2784 (iexplore.exe)
Victim module: USER32.dll (0x76f40000 - 0x77009000)
Function: USER32.dll!ReleaseCapture at 0x76f769f2
Hook address: 0x87d963
Hooking module: <unknown>

Disassembly(0):
0x76f769f2 e96c6f9089       JMP 0x87d963
0x76f769f7 fe               DB 0xfe
0x76f769f8 ffc3             INC EBX
0x76f769fa 90               NOP
0x76f769fb 90               NOP
0x76f769fc 90               NOP
0x76f769fd 90               NOP
0x76f769fe 90               NOP
0x76f769ff 8bff             MOV EDI, EDI
0x76f76a01 55               PUSH EBP
0x76f76a02 8bec             MOV EBP, ESP
0x76f76a04 6a30             PUSH 0x30
0x76f76a06 ff7508           PUSH DWORD [EBP+0x8]
0x76f76a09 e8               DB 0xe8

Disassembly(1):
0x87d963 f605e836890004   TEST BYTE [0x8936e8], 0x4
0x87d96a 7441             JZ 0x87d9ad
0x87d96c e807d70000       CALL 0x88b078
0x87d971 84c0             TEST AL, AL
0x87d973 7438             JZ 0x87d9ad
0x87d975 ff1574128700     CALL DWORD [0x871274]

************************************************************************
Hook mode: Usermode
Hook type: Inline/Trampoline
Process: 2784 (iexplore.exe)
Victim module: USER32.dll (0x76f40000 - 0x77009000)
Function: USER32.dll!ReleaseDC at 0x76f55421
Hook address: 0x880990
Hooking module: <unknown>

Disassembly(0):
0x76f55421 e96ab59289       JMP 0x880990
0x76f55426 837d0c00         CMP DWORD [EBP+0xc], 0x0
0x76f5542a 0f846b380200     JZ 0x76f78c9b
0x76f55430 ff750c           PUSH DWORD [EBP+0xc]
0x76f55433 ff152013f476     CALL DWORD [0x76f41320]

Disassembly(1):
0x880990 f605e836890004   TEST BYTE [0x8936e8], 0x4
0x880997 56               PUSH ESI
0x880998 8b74240c         MOV ESI, [ESP+0xc]
0x88099c 7423             JZ 0x8809c1
0x88099e e8d5a60000       CALL 0x88b078
0x8809a3 84c0             TEST AL, AL
0x8809a5 741a             JZ 0x8809c1
0x8809a7 ff               DB 0xff

************************************************************************
Hook mode: Usermode
Hook type: Inline/Trampoline
Process: 2784 (iexplore.exe)
Victim module: USER32.dll (0x76f40000 - 0x77009000)
Function: USER32.dll!SetCapture at 0x76f76932
Hook address: 0x87d909
Hooking module: <unknown>

Disassembly(0):
0x76f76932 e9d26f9089       JMP 0x87d909
0x76f76937 ba0003fe7f       MOV EDX, 0x7ffe0300
0x76f7693c ff12             CALL DWORD [EDX]
0x76f7693e c20400           RET 0x4
0x76f76941 90               NOP
0x76f76942 90               NOP
0x76f76943 90               NOP
0x76f76944 90               NOP
0x76f76945 90               NOP
0x76f76946 b8               DB 0xb8
0x76f76947 b211             MOV DL, 0x11
0x76f76949 00               DB 0x0

Disassembly(1):
0x87d909 f605e836890004   TEST BYTE [0x8936e8], 0x4
0x87d910 53               PUSH EBX
0x87d911 56               PUSH ESI
0x87d912 57               PUSH EDI
0x87d913 7445             JZ 0x87d95a
0x87d915 e85ed70000       CALL 0x88b078
0x87d91a 84c0             TEST AL, AL
0x87d91c 743c             JZ 0x87d95a
0x87d91e 8b               DB 0x8b
0x87d91f 5c               POP ESP
0x87d920 24               DB 0x24

************************************************************************
Hook mode: Usermode
Hook type: Inline/Trampoline
Process: 2784 (iexplore.exe)
Victim module: USER32.dll (0x76f40000 - 0x77009000)
Function: USER32.dll!SetCursorPos at 0x76f8c1b0
Hook address: 0x87d8cc
Hooking module: <unknown>

Disassembly(0):
0x76f8c1b0 e917178f89       JMP 0x87d8cc
0x76f8c1b5 6a74             PUSH 0x74
0x76f8c1b7 ff750c           PUSH DWORD [EBP+0xc]
0x76f8c1ba ff7508           PUSH DWORD [EBP+0x8]
0x76f8c1bd e80a1afcff       CALL 0x76f4dbcc
0x76f8c1c2 5d               POP EBP
0x76f8c1c3 c20800           RET 0x8
0x76f8c1c6 90               NOP
0x76f8c1c7 90               NOP

Disassembly(1):
0x87d8cc f605e836890004   TEST BYTE [0x8936e8], 0x4
0x87d8d3 742e             JZ 0x87d903
0x87d8d5 e89ed70000       CALL 0x88b078
0x87d8da 84c0             TEST AL, AL
0x87d8dc 7425             JZ 0x87d903
0x87d8de a1b8238900       MOV EAX, [0x8923b8]
0x87d8e3 8b               DB 0x8b

************************************************************************
Hook mode: Usermode
Hook type: Inline/Trampoline
Process: 2784 (iexplore.exe)
Victim module: USER32.dll (0x76f40000 - 0x77009000)
Function: USER32.dll!SwitchDesktop at 0x76f4476b
Hook address: 0x8753ae
Hooking module: <unknown>

Disassembly(0):
0x76f4476b e93e0c9389       JMP 0x8753ae
0x76f44770 6a00             PUSH 0x0
0x76f44772 ff7508           PUSH DWORD [EBP+0x8]
0x76f44775 e8a2020000       CALL 0x76f44a1c
0x76f4477a 5d               POP EBP
0x76f4477b c20400           RET 0x4
0x76f4477e 33c0             XOR EAX, EAX
0x76f44780 e9               DB 0xe9
0x76f44781 3a               DB 0x3a
0x76f44782 73               DB 0x73

Disassembly(1):
0x8753ae f605e836890004   TEST BYTE [0x8936e8], 0x4
0x8753b5 740f             JZ 0x8753c6
0x8753b7 e8bc5c0100       CALL 0x88b078
0x8753bc 84c0             TEST AL, AL
0x8753be 7406             JZ 0x8753c6
0x8753c0 33c0             XOR EAX, EAX
0x8753c2 40               INC EAX
0x8753c3 c20400           RET 0x4

************************************************************************
Hook mode: Usermode
Hook type: Inline/Trampoline
Process: 2784 (iexplore.exe)
Victim module: USER32.dll (0x76f40000 - 0x77009000)
Function: USER32.dll!TranslateMessage at 0x76f564c7
Hook address: 0x87f91f
Hooking module: <unknown>

Disassembly(0):
0x76f564c7 e953949289       JMP 0x87f91f
0x76f564cc 56               PUSH ESI
0x76f564cd 8b7508           MOV ESI, [EBP+0x8]
0x76f564d0 b8e5000000       MOV EAX, 0xe5
0x76f564d5 66394608         CMP [ESI+0x8], AX
0x76f564d9 0f84e4dc0200     JZ 0x76f841c3

Disassembly(1):
0x87f91f 55               PUSH EBP
0x87f920 8bec             MOV EBP, ESP
0x87f922 83e4f8           AND ESP, -0x8
0x87f925 81ec74030000     SUB ESP, 0x374
0x87f92b 53               PUSH EBX
0x87f92c 8b5d08           MOV EBX, [EBP+0x8]
0x87f92f 56               PUSH ESI
0x87f930 57               PUSH EDI
0x87f931 85db             TEST EBX, EBX
0x87f933 0f               DB 0xf
0x87f934 843c01           TEST [ECX+EAX], BH

************************************************************************
Hook mode: Usermode
Hook type: Inline/Trampoline
Process: 2784 (iexplore.exe)
Victim module: WS2_32.dll (0x75ad0000 - 0x75b05000)
Function: WS2_32.dll!WSASend at 0x75ad4406
Hook address: 0x87ff16
Hooking module: <unknown>

Disassembly(0):
0x75ad4406 e90bbbda8a       JMP 0x87ff16
0x75ad440b 51               PUSH ECX
0x75ad440c 51               PUSH ECX
0x75ad440d 813d4870af75292ead75 CMP DWORD [0x75af7048], 0x75ad2e29
0x75ad4417 56               PUSH ESI
0x75ad4418 0f85ca010000     JNZ 0x75ad45e8

Disassembly(1):
0x87ff16 55               PUSH EBP
0x87ff17 8bec             MOV EBP, ESP
0x87ff19 83e4f8           AND ESP, -0x8
0x87ff1c 56               PUSH ESI
0x87ff1d 57               PUSH EDI
0x87ff1e e855b10000       CALL 0x88b078
0x87ff23 8b750c           MOV ESI, [EBP+0xc]
0x87ff26 84c0             TEST AL, AL
0x87ff28 7419             JZ 0x87ff43
0x87ff2a 837d1000         CMP DWORD [EBP+0x10], 0x0

************************************************************************
Hook mode: Usermode
Hook type: Inline/Trampoline
Process: 2784 (iexplore.exe)
Victim module: WS2_32.dll (0x75ad0000 - 0x75b05000)
Function: WS2_32.dll!closesocket at 0x75ad3918
Hook address: 0x87febd
Hooking module: <unknown>

Disassembly(0):
0x75ad3918 e9a0c5da8a       JMP 0x87febd
0x75ad391d 51               PUSH ECX
0x75ad391e 53               PUSH EBX
0x75ad391f 56               PUSH ESI
0x75ad3920 be292ead75       MOV ESI, 0x75ad2e29
0x75ad3925 33db             XOR EBX, EBX
0x75ad3927 57               PUSH EDI
0x75ad3928 39354870af75     CMP [0x75af7048], ESI
0x75ad392e 0f               DB 0xf
0x75ad392f 85               DB 0x85

Disassembly(1):
0x87febd e8b6b10000       CALL 0x88b078
0x87fec2 84c0             TEST AL, AL
0x87fec4 7429             JZ 0x87feef
0x87fec6 56               PUSH ESI
0x87fec7 be68278900       MOV ESI, 0x892768
0x87fecc 56               PUSH ESI
0x87fecd ff154c128700     CALL DWORD [0x87124c]
0x87fed3 ff               DB 0xff
0x87fed4 74               DB 0x74

************************************************************************
Hook mode: Usermode
Hook type: Inline/Trampoline
Process: 2784 (iexplore.exe)
Victim module: WS2_32.dll (0x75ad0000 - 0x75b05000)
Function: WS2_32.dll!send at 0x75ad6f01
Hook address: 0x87fef5
Hooking module: <unknown>

Disassembly(0):
0x75ad6f01 e9ef8fda8a       JMP 0x87fef5
0x75ad6f06 83ec10           SUB ESP, 0x10
0x75ad6f09 56               PUSH ESI
0x75ad6f0a 57               PUSH EDI
0x75ad6f0b 33ff             XOR EDI, EDI
0x75ad6f0d 813d4870af75292ead75 CMP DWORD [0x75af7048], 0x75ad2e29
0x75ad6f17 757b             JNZ 0x75ad6f94

Disassembly(1):
0x87fef5 55               PUSH EBP
0x87fef6 8bec             MOV EBP, ESP
0x87fef8 e87bb10000       CALL 0x88b078
0x87fefd 84c0             TEST AL, AL
0x87feff 740e             JZ 0x87ff0f
0x87ff01 ff7508           PUSH DWORD [EBP+0x8]
0x87ff04 8b4510           MOV EAX, [EBP+0x10]
0x87ff07 8b4d0c           MOV ECX, [EBP+0xc]
0x87ff0a e8               DB 0xe8
0x87ff0b 35               DB 0x35
0x87ff0c fd               STD

************************************************************************
Hook mode: Usermode
Hook type: Inline/Trampoline
Process: 2784 (iexplore.exe)
Victim module: WININET.dll (0x760b0000 - 0x761a5000)
Function: WININET.dll!HttpQueryInfoA at 0x760ca33e
Hook address: 0x88a4ad
Hooking module: <unknown>

Disassembly(0):
0x760ca33e e96a017c8a       JMP 0x88a4ad
0x760ca343 83ec6c           SUB ESP, 0x6c
0x760ca346 a1a0931676       MOV EAX, [0x761693a0]
0x760ca34b 33c5             XOR EAX, EBP
0x760ca34d 8945fc           MOV [EBP-0x4], EAX
0x760ca350 8b4510           MOV EAX, [EBP+0x10]
0x760ca353 8945d8           MOV [EBP-0x28], EAX

Disassembly(1):
0x88a4ad 55               PUSH EBP
0x88a4ae 8bec             MOV EBP, ESP
0x88a4b0 e8c30b0000       CALL 0x88b078
0x88a4b5 84c0             TEST AL, AL
0x88a4b7 7441             JZ 0x88a4fa
0x88a4b9 56               PUSH ESI
0x88a4ba 57               PUSH EDI
0x88a4bb bfb0358900       MOV EDI, 0x8935b0
0x88a4c0 57               PUSH EDI
0x88a4c1 ff               DB 0xff
0x88a4c2 15               DB 0x15
0x88a4c3 4c               DEC ESP
0x88a4c4 12               DB 0x12

************************************************************************
Hook mode: Usermode
Hook type: Inline/Trampoline
Process: 2784 (iexplore.exe)
Victim module: WININET.dll (0x760b0000 - 0x761a5000)
Function: WININET.dll!HttpSendRequestA at 0x761418f8
Hook address: 0x88a229
Hooking module: <unknown>

Disassembly(0):
0x761418f8 e92c89748a       JMP 0x88a229
0x761418fd 83ec38           SUB ESP, 0x38
0x76141900 56               PUSH ESI
0x76141901 6a38             PUSH 0x38
0x76141903 8d45c8           LEA EAX, [EBP-0x38]
0x76141906 6a00             PUSH 0x0
0x76141908 50               PUSH EAX
0x76141909 e80d00f7ff       CALL 0x760b191b
0x7614190e 83               DB 0x83
0x7614190f c4               DB 0xc4

Disassembly(1):
0x88a229 55               PUSH EBP
0x88a22a 8bec             MOV EBP, ESP
0x88a22c e8470e0000       CALL 0x88b078
0x88a231 84c0             TEST AL, AL
0x88a233 743d             JZ 0x88a272
0x88a235 837d1000         CMP DWORD [EBP+0x10], 0x0
0x88a239 7422             JZ 0x88a25d
0x88a23b 837d0c00         CMP DWORD [EBP+0xc], 0x0
0x88a23f 741c             JZ 0x88a25d

************************************************************************
Hook mode: Usermode
Hook type: Inline/Trampoline
Process: 2784 (iexplore.exe)
Victim module: WININET.dll (0x760b0000 - 0x761a5000)
Function: WININET.dll!HttpSendRequestExA at 0x76141812
Hook address: 0x88a319
Hooking module: <unknown>

Disassembly(0):
0x76141812 e9028b748a       JMP 0x88a319
0x76141817 83ec40           SUB ESP, 0x40
0x7614181a 53               PUSH EBX
0x7614181b 56               PUSH ESI
0x7614181c 57               PUSH EDI
0x7614181d 6a38             PUSH 0x38
0x7614181f 33f6             XOR ESI, ESI
0x76141821 8d45c0           LEA EAX, [EBP-0x40]
0x76141824 56               PUSH ESI
0x76141825 50               PUSH EAX
0x76141826 33ff             XOR EDI, EDI
0x76141828 33db             XOR EBX, EBX

Disassembly(1):
0x88a319 55               PUSH EBP
0x88a31a 8bec             MOV EBP, ESP
0x88a31c 83e4f8           AND ESP, -0x8
0x88a31f 83ec2c           SUB ESP, 0x2c
0x88a322 56               PUSH ESI
0x88a323 e8500d0000       CALL 0x88b078
0x88a328 84c0             TEST AL, AL
0x88a32a 746c             JZ 0x88a398
0x88a32c 33f6             XOR ESI, ESI
0x88a32e 6a28             PUSH 0x28
0x88a330 8d               DB 0x8d

************************************************************************
Hook mode: Usermode
Hook type: Inline/Trampoline
Process: 2784 (iexplore.exe)
Victim module: WININET.dll (0x760b0000 - 0x761a5000)
Function: WININET.dll!HttpSendRequestExW at 0x760e4a3d
Hook address: 0x88a27d
Hooking module: <unknown>

Disassembly(0):
0x760e4a3d e93b587a8a       JMP 0x88a27d
0x760e4a42 83ec4c           SUB ESP, 0x4c
0x760e4a45 53               PUSH EBX
0x760e4a46 57               PUSH EDI
0x760e4a47 33ff             XOR EDI, EDI
0x760e4a49 6a38             PUSH 0x38
0x760e4a4b 8d45b4           LEA EAX, [EBP-0x4c]
0x760e4a4e 57               PUSH EDI
0x760e4a4f 50               PUSH EAX
0x760e4a50 897dfc           MOV [EBP-0x4], EDI
0x760e4a53 89               DB 0x89
0x760e4a54 7d               DB 0x7d

Disassembly(1):
0x88a27d 55               PUSH EBP
0x88a27e 8bec             MOV EBP, ESP
0x88a280 83e4f8           AND ESP, -0x8
0x88a283 83ec2c           SUB ESP, 0x2c
0x88a286 56               PUSH ESI
0x88a287 e8ec0d0000       CALL 0x88b078
0x88a28c 84c0             TEST AL, AL
0x88a28e 746c             JZ 0x88a2fc
0x88a290 33f6             XOR ESI, ESI
0x88a292 6a28             PUSH 0x28
0x88a294 8d               DB 0x8d

************************************************************************
Hook mode: Usermode
Hook type: Inline/Trampoline
Process: 2784 (iexplore.exe)
Victim module: WININET.dll (0x760b0000 - 0x761a5000)
Function: WININET.dll!HttpSendRequestW at 0x760dba12
Hook address: 0x88a1d5
Hooking module: <unknown>

Disassembly(0):
0x760dba12 e9bee77a8a       JMP 0x88a1d5
0x760dba17 83ec40           SUB ESP, 0x40
0x760dba1a 53               PUSH EBX
0x760dba1b 56               PUSH ESI
0x760dba1c 57               PUSH EDI
0x760dba1d 33f6             XOR ESI, ESI
0x760dba1f 6a38             PUSH 0x38
0x760dba21 8d45c0           LEA EAX, [EBP-0x40]
0x760dba24 56               PUSH ESI
0x760dba25 50               PUSH EAX
0x760dba26 33ff             XOR EDI, EDI
0x760dba28 33db             XOR EBX, EBX

Disassembly(1):
0x88a1d5 55               PUSH EBP
0x88a1d6 8bec             MOV EBP, ESP
0x88a1d8 e89b0e0000       CALL 0x88b078
0x88a1dd 84c0             TEST AL, AL
0x88a1df 743d             JZ 0x88a21e
0x88a1e1 837d1000         CMP DWORD [EBP+0x10], 0x0
0x88a1e5 7422             JZ 0x88a209
0x88a1e7 837d0c00         CMP DWORD [EBP+0xc], 0x0
0x88a1eb 741c             JZ 0x88a209

************************************************************************
Hook mode: Usermode
Hook type: Inline/Trampoline
Process: 2784 (iexplore.exe)
Victim module: WININET.dll (0x760b0000 - 0x761a5000)
Function: WININET.dll!InternetCloseHandle at 0x760cab49
Hook address: 0x88a3b5
Hooking module: <unknown>

Disassembly(0):
0x760cab49 e967f87b8a       JMP 0x88a3b5
0x760cab4e 83ec38           SUB ESP, 0x38
0x760cab51 56               PUSH ESI
0x760cab52 6a38             PUSH 0x38
0x760cab54 8d45c8           LEA EAX, [EBP-0x38]
0x760cab57 6a00             PUSH 0x0
0x760cab59 50               PUSH EAX
0x760cab5a e8bc6dfeff       CALL 0x760b191b
0x760cab5f 83               DB 0x83
0x760cab60 c4               DB 0xc4

Disassembly(1):
0x88a3b5 53               PUSH EBX
0x88a3b6 56               PUSH ESI
0x88a3b7 8b74240c         MOV ESI, [ESP+0xc]
0x88a3bb 56               PUSH ESI
0x88a3bc ff1500158700     CALL DWORD [0x871500]
0x88a3c2 8bd8             MOV EBX, EAX
0x88a3c4 e8af0c0000       CALL 0x88b078
0x88a3c9 84c0             TEST AL, AL
0x88a3cb 7424             JZ 0x88a3f1

************************************************************************
Hook mode: Usermode
Hook type: Inline/Trampoline
Process: 2784 (iexplore.exe)
Victim module: WININET.dll (0x760b0000 - 0x761a5000)
Function: WININET.dll!InternetQueryDataAvailable at 0x760d5e5d
Hook address: 0x88a481
Hooking module: <unknown>

Disassembly(0):
0x760d5e5d e91f467b8a       JMP 0x88a481
0x760d5e62 83ec64           SUB ESP, 0x64
0x760d5e65 a1a0931676       MOV EAX, [0x761693a0]
0x760d5e6a 33c5             XOR EAX, EBP
0x760d5e6c 8945fc           MOV [EBP-0x4], EAX
0x760d5e6f 8b450c           MOV EAX, [EBP+0xc]
0x760d5e72 53               PUSH EBX
0x760d5e73 8b               DB 0x8b
0x760d5e74 5d               POP EBP

Disassembly(1):
0x88a481 55               PUSH EBP
0x88a482 8bec             MOV EBP, ESP
0x88a484 e8ef0b0000       CALL 0x88b078
0x88a489 84c0             TEST AL, AL
0x88a48b 7415             JZ 0x88a4a2
0x88a48d ff750c           PUSH DWORD [EBP+0xc]
0x88a490 8d4508           LEA EAX, [EBP+0x8]
0x88a493 6a00             PUSH 0x0
0x88a495 6a00             PUSH 0x0
0x88a497 50               PUSH EAX
0x88a498 e8               DB 0xe8

************************************************************************
Hook mode: Usermode
Hook type: Inline/Trampoline
Process: 2784 (iexplore.exe)
Victim module: WININET.dll (0x760b0000 - 0x761a5000)
Function: WININET.dll!InternetReadFile at 0x760cb406
Hook address: 0x88a3f8
Hooking module: <unknown>

Disassembly(0):
0x760cb406 e9edef7b8a       JMP 0x88a3f8
0x760cb40b 83ec38           SUB ESP, 0x38
0x760cb40e 56               PUSH ESI
0x760cb40f 6a38             PUSH 0x38
0x760cb411 8d45c8           LEA EAX, [EBP-0x38]
0x760cb414 6a00             PUSH 0x0
0x760cb416 50               PUSH EAX
0x760cb417 e8ff64feff       CALL 0x760b191b
0x760cb41c 83               DB 0x83
0x760cb41d c4               DB 0xc4

Disassembly(1):
0x88a3f8 55               PUSH EBP
0x88a3f9 8bec             MOV EBP, ESP
0x88a3fb e8780c0000       CALL 0x88b078
0x88a400 84c0             TEST AL, AL
0x88a402 7428             JZ 0x88a42c
0x88a404 33c0             XOR EAX, EAX
0x88a406 39450c           CMP [EBP+0xc], EAX
0x88a409 7421             JZ 0x88a42c
0x88a40b 394510           CMP [EBP+0x10], EAX
0x88a40e 761c             JBE 0x88a42c

************************************************************************
Hook mode: Usermode
Hook type: Inline/Trampoline
Process: 2784 (iexplore.exe)
Victim module: WININET.dll (0x760b0000 - 0x761a5000)
Function: WININET.dll!InternetReadFileExA at 0x760fae46
Hook address: 0x88a437
Hooking module: <unknown>

Disassembly(0):
0x760fae46 e9ecf5788a       JMP 0x88a437
0x760fae4b 83ec78           SUB ESP, 0x78
0x760fae4e a1a0931676       MOV EAX, [0x761693a0]
0x760fae53 33c5             XOR EAX, EBP
0x760fae55 8945fc           MOV [EBP-0x4], EAX
0x760fae58 8b4508           MOV EAX, [EBP+0x8]
0x760fae5b 53               PUSH EBX
0x760fae5c 56               PUSH ESI
0x760fae5d 8b               DB 0x8b

Disassembly(1):
0x88a437 55               PUSH EBP
0x88a438 8bec             MOV EBP, ESP
0x88a43a 56               PUSH ESI
0x88a43b e8380c0000       CALL 0x88b078
0x88a440 8b750c           MOV ESI, [EBP+0xc]
0x88a443 84c0             TEST AL, AL
0x88a445 7425             JZ 0x88a46c
0x88a447 85f6             TEST ESI, ESI
0x88a449 7421             JZ 0x88a46c
0x88a44b 8b5614           MOV EDX, [ESI+0x14]
0x88a44e 85               DB 0x85

************************************************************************
Hook mode: Usermode
Hook type: Inline/Trampoline
Process: 2784 (iexplore.exe)
Victim module: CRYPT32.dll (0x754d0000 - 0x755ed000)
Function: CRYPT32.dll!PFXImportCertStore at 0x75560ddc
Hook address: 0x88c8ed
Hooking module: <unknown>

Disassembly(0):
0x75560ddc e90cbb328b       JMP 0x88c8ed
0x75560de1 81ec84000000     SUB ESP, 0x84
0x75560de7 a108535875       MOV EAX, [0x75585308]
0x75560dec 33c5             XOR EAX, EBP
0x75560dee 8945fc           MOV [EBP-0x4], EAX
0x75560df1 53               PUSH EBX
0x75560df2 8b               DB 0x8b
0x75560df3 5d               POP EBP

Disassembly(1):
0x88c8ed 55               PUSH EBP
0x88c8ee 8bec             MOV EBP, ESP
0x88c8f0 83e4f8           AND ESP, -0x8
0x88c8f3 81ecfc020000     SUB ESP, 0x2fc
0x88c8f9 53               PUSH EBX
0x88c8fa 8b5d08           MOV EBX, [EBP+0x8]
0x88c8fd 56               PUSH ESI
0x88c8fe 57               PUSH EDI
0x88c8ff ff7510           PUSH DWORD [EBP+0x10]
0x88c902 ff750c           PUSH DWORD [EBP+0xc]

************************************************************************
Hook mode: Usermode
Hook type: Inline/Trampoline
Process: 2800 (iexplore.exe)
Victim module: ntdll.dll (0x771a0000 - 0x772dc000)
Function: ntdll.dll!LdrLoadDll at 0x772022b8
Hook address: 0x295a6e
Hooking module: <unknown>

Disassembly(0):
0x772022b8 e9b1370989       JMP 0x295a6e
0x772022bd 51               PUSH ECX
0x772022be 51               PUSH ECX
0x772022bf a158751f77       MOV EAX, [0x771f7558]
0x772022c4 53               PUSH EBX
0x772022c5 56               PUSH ESI
0x772022c6 8b7508           MOV ESI, [EBP+0x8]
0x772022c9 83c801           OR EAX, 0x1
0x772022cc 57               PUSH EDI
0x772022cd bb               DB 0xbb
0x772022ce a2               DB 0xa2
0x772022cf 7e               DB 0x7e

Disassembly(1):
0x295a6e 55               PUSH EBP
0x295a6f 8bec             MOV EBP, ESP
0x295a71 e802560100       CALL 0x2ab078
0x295a76 84c0             TEST AL, AL
0x295a78 7507             JNZ 0x295a81
0x295a7a 5d               POP EBP
0x295a7b ff2520372b00     JMP DWORD [0x2b3720]
0x295a81 53               PUSH EBX
0x295a82 56               PUSH ESI
0x295a83 8b7514           MOV ESI, [EBP+0x14]

************************************************************************
Hook mode: Usermode
Hook type: Inline/Trampoline
Process: 2800 (iexplore.exe)
Victim module: ntdll.dll (0x771a0000 - 0x772dc000)
Function: ntdll.dll!NtCreateUserProcess at 0x771e5778
Hook address: 0x295945
Hooking module: <unknown>

Disassembly(0):
0x771e5778 e9c8010b89       JMP 0x295945
0x771e577d ba0003fe7f       MOV EDX, 0x7ffe0300
0x771e5782 ff12             CALL DWORD [EDX]
0x771e5784 c22c00           RET 0x2c
0x771e5787 90               NOP
0x771e5788 b85e000000       MOV EAX, 0x5e
0x771e578d ba               DB 0xba
0x771e578e 0003             ADD [EBX], AL

Disassembly(1):
0x295945 55               PUSH EBP
0x295946 8bec             MOV EBP, ESP
0x295948 81eccc020000     SUB ESP, 0x2cc
0x29594e 53               PUSH EBX
0x29594f ff7530           PUSH DWORD [EBP+0x30]
0x295952 8b5d08           MOV EBX, [EBP+0x8]
0x295955 ff752c           PUSH DWORD [EBP+0x2c]
0x295958 ff7528           PUSH DWORD [EBP+0x28]
0x29595b ff               DB 0xff
0x29595c 75               DB 0x75

************************************************************************
Hook mode: Usermode
Hook type: Inline/Trampoline
Process: 2800 (iexplore.exe)
Victim module: ntdll.dll (0x771a0000 - 0x772dc000)
Function: ntdll.dll!ZwCreateUserProcess at 0x771e5778
Hook address: 0x295945
Hooking module: <unknown>

Disassembly(0):
0x771e5778 e9c8010b89       JMP 0x295945
0x771e577d ba0003fe7f       MOV EDX, 0x7ffe0300
0x771e5782 ff12             CALL DWORD [EDX]
0x771e5784 c22c00           RET 0x2c
0x771e5787 90               NOP
0x771e5788 b85e000000       MOV EAX, 0x5e
0x771e578d ba               DB 0xba
0x771e578e 0003             ADD [EBX], AL

Disassembly(1):
0x295945 55               PUSH EBP
0x295946 8bec             MOV EBP, ESP
0x295948 81eccc020000     SUB ESP, 0x2cc
0x29594e 53               PUSH EBX
0x29594f ff7530           PUSH DWORD [EBP+0x30]
0x295952 8b5d08           MOV EBX, [EBP+0x8]
0x295955 ff752c           PUSH DWORD [EBP+0x2c]
0x295958 ff7528           PUSH DWORD [EBP+0x28]
0x29595b ff               DB 0xff
0x29595c 75               DB 0x75

************************************************************************
Hook mode: Usermode
Hook type: Inline/Trampoline
Process: 2800 (iexplore.exe)
Victim module: kernel32.dll (0x75960000 - 0x75a34000)
Function: kernel32.dll!GetFileAttributesExW at 0x759a273d
Hook address: 0x295b0e
Hooking module: <unknown>

Disassembly(0):
0x759a273d e9cc338f8a       JMP 0x295b0e
0x759a2742 5d               POP EBP
0x759a2743 eb05             JMP 0x759a274a
0x759a2745 90               NOP
0x759a2746 90               NOP
0x759a2747 90               NOP
0x759a2748 90               NOP
0x759a2749 90               NOP
0x759a274a ff25341a9675     JMP DWORD [0x75961a34]
0x759a2750 33c9             XOR ECX, ECX
0x759a2752 39               DB 0x39
0x759a2753 8d               DB 0x8d
0x759a2754 60               PUSHA

Disassembly(1):
0x295b0e 55               PUSH EBP
0x295b0f 8bec             MOV EBP, ESP
0x295b11 817d0c6063f188   CMP DWORD [EBP+0xc], 0x88f16360
0x295b18 57               PUSH EDI
0x295b19 7551             JNZ 0x295b6c
0x295b1b 837d0800         CMP DWORD [EBP+0x8], 0x0
0x295b1f 744b             JZ 0x295b6c
0x295b21 e852550100       CALL 0x2ab078

************************************************************************
Hook mode: Usermode
Hook type: Inline/Trampoline
Process: 2800 (iexplore.exe)
Victim module: USER32.dll (0x76f40000 - 0x77009000)
Function: USER32.dll!BeginPaint at 0x76f55d14
Hook address: 0x2a0807
Hooking module: <unknown>

Disassembly(0):
0x76f55d14 e9eeaa3489       JMP 0x2a0807
0x76f55d19 ba0003fe7f       MOV EDX, 0x7ffe0300
0x76f55d1e ff12             CALL DWORD [EDX]
0x76f55d20 c20800           RET 0x8
0x76f55d23 837d0c00         CMP DWORD [EBP+0xc], 0x0
0x76f55d27 0f               DB 0xf
0x76f55d28 853e             TEST [ESI], EDI
0x76f55d2a a801             TEST AL, 0x1

Disassembly(1):
0x2a0807 f605e8362b0004   TEST BYTE [0x2b36e8], 0x4
0x2a080e 56               PUSH ESI
0x2a080f 8b74240c         MOV ESI, [ESP+0xc]
0x2a0813 57               PUSH EDI
0x2a0814 8b7c240c         MOV EDI, [ESP+0xc]
0x2a0818 7450             JZ 0x2a086a
0x2a081a e859a80000       CALL 0x2ab078

************************************************************************
Hook mode: Usermode
Hook type: Inline/Trampoline
Process: 2800 (iexplore.exe)
Victim module: USER32.dll (0x76f40000 - 0x77009000)
Function: USER32.dll!CallWindowProcA at 0x76f72bd3
Hook address: 0x29564b
Hooking module: <unknown>

Disassembly(0):
0x76f72bd3 e9732a3289       JMP 0x29564b
0x76f72bd8 6a01             PUSH 0x1
0x76f72bda ff7518           PUSH DWORD [EBP+0x18]
0x76f72bdd ff7514           PUSH DWORD [EBP+0x14]
0x76f72be0 ff7510           PUSH DWORD [EBP+0x10]
0x76f72be3 ff750c           PUSH DWORD [EBP+0xc]
0x76f72be6 ff7508           PUSH DWORD [EBP+0x8]
0x76f72be9 e8               DB 0xe8
0x76f72bea f2               DB 0xf2

Disassembly(1):
0x29564b 55               PUSH EBP
0x29564c 8bec             MOV EBP, ESP
0x29564e f605e8362b0004   TEST BYTE [0x2b36e8], 0x4
0x295655 56               PUSH ESI
0x295656 8b7510           MOV ESI, [EBP+0x10]
0x295659 7421             JZ 0x29567c
0x29565b e8185a0100       CALL 0x2ab078
0x295660 84c0             TEST AL, AL
0x295662 74               DB 0x74

************************************************************************
Hook mode: Usermode
Hook type: Inline/Trampoline
Process: 2800 (iexplore.exe)
Victim module: USER32.dll (0x76f40000 - 0x77009000)
Function: USER32.dll!CallWindowProcW at 0x76f51b3c
Hook address: 0x295602
Hooking module: <unknown>

Disassembly(0):
0x76f51b3c e9c13a3489       JMP 0x295602
0x76f51b41 6a00             PUSH 0x0
0x76f51b43 ff7518           PUSH DWORD [EBP+0x18]
0x76f51b46 ff7514           PUSH DWORD [EBP+0x14]
0x76f51b49 ff7510           PUSH DWORD [EBP+0x10]
0x76f51b4c ff750c           PUSH DWORD [EBP+0xc]
0x76f51b4f ff7508           PUSH DWORD [EBP+0x8]
0x76f51b52 e8               DB 0xe8
0x76f51b53 89               DB 0x89

Disassembly(1):
0x295602 55               PUSH EBP
0x295603 8bec             MOV EBP, ESP
0x295605 f605e8362b0004   TEST BYTE [0x2b36e8], 0x4
0x29560c 56               PUSH ESI
0x29560d 8b7510           MOV ESI, [EBP+0x10]
0x295610 7421             JZ 0x295633
0x295612 e8615a0100       CALL 0x2ab078
0x295617 84c0             TEST AL, AL
0x295619 74               DB 0x74

************************************************************************
Hook mode: Usermode
Hook type: Inline/Trampoline
Process: 2800 (iexplore.exe)
Victim module: USER32.dll (0x76f40000 - 0x77009000)
Function: USER32.dll!DefDlgProcA at 0x76f671e4
Hook address: 0x29549e
Hooking module: <unknown>

Disassembly(0):
0x76f671e4 e9b5e23289       JMP 0x29549e
0x76f671e9 8b4d08           MOV ECX, [EBP+0x8]
0x76f671ec e81f53ffff       CALL 0x76f5c510
0x76f671f1 85c0             TEST EAX, EAX
0x76f671f3 7411             JZ 0x76f67206
0x76f671f5 6a01             PUSH 0x1
0x76f671f7 ff7514           PUSH DWORD [EBP+0x14]
0x76f671fa ff               DB 0xff
0x76f671fb 75               DB 0x75

Disassembly(1):
0x29549e 55               PUSH EBP
0x29549f 8bec             MOV EBP, ESP
0x2954a1 f605e8362b0004   TEST BYTE [0x2b36e8], 0x4
0x2954a8 56               PUSH ESI
0x2954a9 8b750c           MOV ESI, [EBP+0xc]
0x2954ac 7421             JZ 0x2954cf
0x2954ae e8c55b0100       CALL 0x2ab078
0x2954b3 84c0             TEST AL, AL
0x2954b5 74               DB 0x74

************************************************************************
Hook mode: Usermode
Hook type: Inline/Trampoline
Process: 2800 (iexplore.exe)
Victim module: USER32.dll (0x76f40000 - 0x77009000)
Function: USER32.dll!DefDlgProcW at 0x76f75bc1
Hook address: 0x295458
Hooking module: <unknown>

Disassembly(0):
0x76f75bc1 e992f83189       JMP 0x295458
0x76f75bc6 8b4d08           MOV ECX, [EBP+0x8]
0x76f75bc9 e84269feff       CALL 0x76f5c510
0x76f75bce 85c0             TEST EAX, EAX
0x76f75bd0 7411             JZ 0x76f75be3
0x76f75bd2 6a00             PUSH 0x0
0x76f75bd4 ff7514           PUSH DWORD [EBP+0x14]
0x76f75bd7 ff               DB 0xff
0x76f75bd8 75               DB 0x75

Disassembly(1):
0x295458 55               PUSH EBP
0x295459 8bec             MOV EBP, ESP
0x29545b f605e8362b0004   TEST BYTE [0x2b36e8], 0x4
0x295462 56               PUSH ESI
0x295463 8b750c           MOV ESI, [EBP+0xc]
0x295466 7421             JZ 0x295489
0x295468 e80b5c0100       CALL 0x2ab078
0x29546d 84c0             TEST AL, AL
0x29546f 74               DB 0x74

************************************************************************
Hook mode: Usermode
Hook type: Inline/Trampoline
Process: 2800 (iexplore.exe)
Victim module: USER32.dll (0x76f40000 - 0x77009000)
Function: USER32.dll!DefFrameProcA at 0x76f725b7
Hook address: 0x29552d
Hooking module: <unknown>

Disassembly(0):
0x76f725b7 e9712f3289       JMP 0x29552d
0x76f725bc 6a01             PUSH 0x1
0x76f725be ff7518           PUSH DWORD [EBP+0x18]
0x76f725c1 ff7514           PUSH DWORD [EBP+0x14]
0x76f725c4 ff7510           PUSH DWORD [EBP+0x10]
0x76f725c7 ff750c           PUSH DWORD [EBP+0xc]
0x76f725ca ff7508           PUSH DWORD [EBP+0x8]
0x76f725cd e8               DB 0xe8
0x76f725ce b9               DB 0xb9

Disassembly(1):
0x29552d 55               PUSH EBP
0x29552e 8bec             MOV EBP, ESP
0x295530 f605e8362b0004   TEST BYTE [0x2b36e8], 0x4
0x295537 56               PUSH ESI
0x295538 8b7510           MOV ESI, [EBP+0x10]
0x29553b 7421             JZ 0x29555e
0x29553d e8365b0100       CALL 0x2ab078
0x295542 84c0             TEST AL, AL
0x295544 74               DB 0x74

************************************************************************
Hook mode: Usermode
Hook type: Inline/Trampoline
Process: 2800 (iexplore.exe)
Victim module: USER32.dll (0x76f40000 - 0x77009000)
Function: USER32.dll!DefFrameProcW at 0x76f7152b
Hook address: 0x2954e4
Hooking module: <unknown>

Disassembly(0):
0x76f7152b e9b43f3289       JMP 0x2954e4
0x76f71530 6a00             PUSH 0x0
0x76f71532 ff7518           PUSH DWORD [EBP+0x18]
0x76f71535 ff7514           PUSH DWORD [EBP+0x14]
0x76f71538 ff7510           PUSH DWORD [EBP+0x10]
0x76f7153b ff750c           PUSH DWORD [EBP+0xc]
0x76f7153e ff7508           PUSH DWORD [EBP+0x8]
0x76f71541 e8               DB 0xe8
0x76f71542 45               INC EBP

Disassembly(1):
0x2954e4 55               PUSH EBP
0x2954e5 8bec             MOV EBP, ESP
0x2954e7 f605e8362b0004   TEST BYTE [0x2b36e8], 0x4
0x2954ee 56               PUSH ESI
0x2954ef 8b7510           MOV ESI, [EBP+0x10]
0x2954f2 7421             JZ 0x295515
0x2954f4 e87f5b0100       CALL 0x2ab078
0x2954f9 84c0             TEST AL, AL
0x2954fb 74               DB 0x74

************************************************************************
Hook mode: Usermode
Hook type: Inline/Trampoline
Process: 2800 (iexplore.exe)
Victim module: USER32.dll (0x76f40000 - 0x77009000)
Function: USER32.dll!DefMDIChildProcA at 0x76f725db
Hook address: 0x2955bc
Hooking module: <unknown>

Disassembly(0):
0x76f725db e9dc2f3289       JMP 0x2955bc
0x76f725e0 6a01             PUSH 0x1
0x76f725e2 ff7514           PUSH DWORD [EBP+0x14]
0x76f725e5 ff7510           PUSH DWORD [EBP+0x10]
0x76f725e8 ff750c           PUSH DWORD [EBP+0xc]
0x76f725eb ff7508           PUSH DWORD [EBP+0x8]
0x76f725ee e892f6ffff       CALL 0x76f71c85

Disassembly(1):
0x2955bc 55               PUSH EBP
0x2955bd 8bec             MOV EBP, ESP
0x2955bf f605e8362b0004   TEST BYTE [0x2b36e8], 0x4
0x2955c6 56               PUSH ESI
0x2955c7 8b750c           MOV ESI, [EBP+0xc]
0x2955ca 7421             JZ 0x2955ed
0x2955cc e8a75a0100       CALL 0x2ab078
0x2955d1 84c0             TEST AL, AL
0x2955d3 74               DB 0x74

************************************************************************
Hook mode: Usermode
Hook type: Inline/Trampoline
Process: 2800 (iexplore.exe)
Victim module: USER32.dll (0x76f40000 - 0x77009000)
Function: USER32.dll!DefMDIChildProcW at 0x76f7150a
Hook address: 0x295576
Hooking module: <unknown>

Disassembly(0):
0x76f7150a e967403289       JMP 0x295576
0x76f7150f 6a00             PUSH 0x0
0x76f71511 ff7514           PUSH DWORD [EBP+0x14]
0x76f71514 ff7510           PUSH DWORD [EBP+0x10]
0x76f71517 ff750c           PUSH DWORD [EBP+0xc]
0x76f7151a ff7508           PUSH DWORD [EBP+0x8]
0x76f7151d e863070000       CALL 0x76f71c85

Disassembly(1):
0x295576 55               PUSH EBP
0x295577 8bec             MOV EBP, ESP
0x295579 f605e8362b0004   TEST BYTE [0x2b36e8], 0x4
0x295580 56               PUSH ESI
0x295581 8b750c           MOV ESI, [EBP+0xc]
0x295584 7421             JZ 0x2955a7
0x295586 e8ed5a0100       CALL 0x2ab078
0x29558b 84c0             TEST AL, AL
0x29558d 74               DB 0x74

************************************************************************
Hook mode: Usermode
Hook type: Inline/Trampoline
Process: 2800 (iexplore.exe)
Victim module: USER32.dll (0x76f40000 - 0x77009000)
Function: USER32.dll!DefWindowProcA at 0x76f4bb1c
Hook address: 0x295412
Hooking module: <unknown>

Disassembly(0):
0x76f4bb1c e9f1983489       JMP 0x295412
0x76f4bb21 f4               HLT
0x76f4bb22 76e8             JBE 0x76f4bb0c
0x76f4bb24 f8               CLC
0x76f4bb25 0801             OR [ECX], AL
0x76f4bb27 00e8             ADD AL, CH
0x76f4bb29 830901           OR DWORD [ECX], 0x1
0x76f4bb2c 00833dd89afa     ADD [EBX-0x56527c3], AL
0x76f4bb32 7600             JBE 0x76f4bb34

Disassembly(1):
0x295412 55               PUSH EBP
0x295413 8bec             MOV EBP, ESP
0x295415 f605e8362b0004   TEST BYTE [0x2b36e8], 0x4
0x29541c 56               PUSH ESI
0x29541d 8b750c           MOV ESI, [EBP+0xc]
0x295420 7421             JZ 0x295443
0x295422 e8515c0100       CALL 0x2ab078
0x295427 84c0             TEST AL, AL
0x295429 74               DB 0x74

************************************************************************
Hook mode: Usermode
Hook type: Inline/Trampoline
Process: 2800 (iexplore.exe)
Victim module: USER32.dll (0x76f40000 - 0x77009000)
Function: USER32.dll!DefWindowProcW at 0x76f5507d
Hook address: 0x2953cc
Hooking module: <unknown>

Disassembly(0):
0x76f5507d e94a033489       JMP 0x2953cc
0x76f55082 f5               CMC
0x76f55083 76e8             JBE 0x76f5506d
0x76f55085 97               XCHG EDI, EAX
0x76f55086 7300             JAE 0x76f55088
0x76f55088 00e8             ADD AL, CH
0x76f5508a 22740000         AND DH, [EAX+EAX+0x0]
0x76f5508e 833dd89afa7600   CMP DWORD [0x76fa9ad8], 0x0

Disassembly(1):
0x2953cc 55               PUSH EBP
0x2953cd 8bec             MOV EBP, ESP
0x2953cf f605e8362b0004   TEST BYTE [0x2b36e8], 0x4
0x2953d6 56               PUSH ESI
0x2953d7 8b750c           MOV ESI, [EBP+0xc]
0x2953da 7421             JZ 0x2953fd
0x2953dc e8975c0100       CALL 0x2ab078
0x2953e1 84c0             TEST AL, AL
0x2953e3 74               DB 0x74

************************************************************************
Hook mode: Usermode
Hook type: Inline/Trampoline
Process: 2800 (iexplore.exe)
Victim module: USER32.dll (0x76f40000 - 0x77009000)
Function: USER32.dll!EndPaint at 0x76f55d42
Hook address: 0x2a0877
Hooking module: <unknown>

Disassembly(0):
0x76f55d42 e930ab3489       JMP 0x2a0877
0x76f55d47 ba0003fe7f       MOV EDX, 0x7ffe0300
0x76f55d4c ff12             CALL DWORD [EDX]
0x76f55d4e c20800           RET 0x8
0x76f55d51 90               NOP
0x76f55d52 90               NOP
0x76f55d53 90               NOP
0x76f55d54 90               NOP
0x76f55d55 90               NOP
0x76f55d56 8bff             MOV EDI, EDI
0x76f55d58 55               PUSH EBP
0x76f55d59 8b               DB 0x8b

Disassembly(1):
0x2a0877 f605e8362b0004   TEST BYTE [0x2b36e8], 0x4
0x2a087e 56               PUSH ESI
0x2a087f 8b742408         MOV ESI, [ESP+0x8]
0x2a0883 7423             JZ 0x2a08a8
0x2a0885 e8eea70000       CALL 0x2ab078
0x2a088a 84c0             TEST AL, AL
0x2a088c 741a             JZ 0x2a08a8
0x2a088e ff               DB 0xff

************************************************************************
Hook mode: Usermode
Hook type: Inline/Trampoline
Process: 2800 (iexplore.exe)
Victim module: USER32.dll (0x76f40000 - 0x77009000)
Function: USER32.dll!GetCapture at 0x76f49dc7
Hook address: 0x29d9b3
Hooking module: <unknown>

Disassembly(0):
0x76f49dc7 e9e73b3589       JMP 0x29d9b3
0x76f49dcc 83b8080b000000   CMP DWORD [EAX+0xb08], 0x0
0x76f49dd3 0f8582c80200     JNZ 0x76f7665b
0x76f49dd9 33c0             XOR EAX, EAX
0x76f49ddb c3               RET
0x76f49ddc 3b5d0c           CMP EBX, [EBP+0xc]

Disassembly(1):
0x29d9b3 f605e8362b0004   TEST BYTE [0x2b36e8], 0x4
0x29d9ba 56               PUSH ESI
0x29d9bb 744b             JZ 0x29da08
0x29d9bd e8b6d60000       CALL 0x2ab078
0x29d9c2 84c0             TEST AL, AL
0x29d9c4 7442             JZ 0x29da08
0x29d9c6 ff               DB 0xff
0x29d9c7 15               DB 0x15
0x29d9c8 7412             JZ 0x29d9dc
0x29d9ca 29               DB 0x29

************************************************************************
Hook mode: Usermode
Hook type: Inline/Trampoline
Process: 2800 (iexplore.exe)
Victim module: USER32.dll (0x76f40000 - 0x77009000)
Function: USER32.dll!GetClipboardData at 0x76f62ba7
Hook address: 0x29fa85
Hooking module: <unknown>

Disassembly(0):
0x76f62ba7 e9d9ce3389       JMP 0x29fa85
0x76f62bac 83ec2c           SUB ESP, 0x2c
0x76f62baf 57               PUSH EDI
0x76f62bb0 8d45d4           LEA EAX, [EBP-0x2c]
0x76f62bb3 50               PUSH EAX
0x76f62bb4 ff7508           PUSH DWORD [EBP+0x8]
0x76f62bb7 e8d7ffffff       CALL 0x76f62b93
0x76f62bbc 33ff             XOR EDI, EDI
0x76f62bbe 89               DB 0x89

Disassembly(1):
0x29fa85 55               PUSH EBP
0x29fa86 8bec             MOV EBP, ESP
0x29fa88 56               PUSH ESI
0x29fa89 8b7508           MOV ESI, [EBP+0x8]
0x29fa8c 57               PUSH EDI
0x29fa8d 56               PUSH ESI
0x29fa8e ff1544142900     CALL DWORD [0x291444]
0x29fa94 8bf8             MOV EDI, EAX
0x29fa96 897d08           MOV [EBP+0x8], EDI
0x29fa99 e8               DB 0xe8
0x29fa9a da               DB 0xda
0x29fa9b b500             MOV CH, 0x0

************************************************************************
Hook mode: Usermode
Hook type: Inline/Trampoline
Process: 2800 (iexplore.exe)
Victim module: USER32.dll (0x76f40000 - 0x77009000)
Function: USER32.dll!GetCursorPos at 0x76f4a4b3
Hook address: 0x29d885
Hooking module: <unknown>

Disassembly(0):
0x76f4a4b3 e9cd333589       JMP 0x29d885
0x76f4a4b8 6a69             PUSH 0x69
0x76f4a4ba 6a01             PUSH 0x1
0x76f4a4bc ff7508           PUSH DWORD [EBP+0x8]
0x76f4a4bf e808370000       CALL 0x76f4dbcc
0x76f4a4c4 5d               POP EBP
0x76f4a4c5 c20400           RET 0x4
0x76f4a4c8 90               NOP
0x76f4a4c9 90               NOP
0x76f4a4ca 90               NOP

Disassembly(1):
0x29d885 f605e8362b0004   TEST BYTE [0x2b36e8], 0x4
0x29d88c 7438             JZ 0x29d8c6
0x29d88e e8e5d70000       CALL 0x2ab078
0x29d893 84c0             TEST AL, AL
0x29d895 742f             JZ 0x29d8c6
0x29d897 8b442404         MOV EAX, [ESP+0x4]
0x29d89b 85c0             TEST EAX, EAX

************************************************************************
Hook mode: Usermode
Hook type: Inline/Trampoline
Process: 2800 (iexplore.exe)
Victim module: USER32.dll (0x76f40000 - 0x77009000)
Function: USER32.dll!GetDC at 0x76f5544c
Hook address: 0x2a0912
Hooking module: <unknown>

Disassembly(0):
0x76f5544c e9c1b43489       JMP 0x2a0912
0x76f55451 ba0003fe7f       MOV EDX, 0x7ffe0300
0x76f55456 ff12             CALL DWORD [EDX]
0x76f55458 c20400           RET 0x4
0x76f5545b 90               NOP
0x76f5545c 90               NOP
0x76f5545d 90               NOP
0x76f5545e 90               NOP
0x76f5545f 90               NOP
0x76f55460 8bff             MOV EDI, EDI
0x76f55462 55               PUSH EBP
0x76f55463 8b               DB 0x8b

Disassembly(1):
0x2a0912 f605e8362b0004   TEST BYTE [0x2b36e8], 0x4
0x2a0919 56               PUSH ESI
0x2a091a 8b742408         MOV ESI, [ESP+0x8]
0x2a091e 7426             JZ 0x2a0946
0x2a0920 e853a70000       CALL 0x2ab078
0x2a0925 84c0             TEST AL, AL
0x2a0927 741d             JZ 0x2a0946
0x2a0929 ff               DB 0xff

************************************************************************
Hook mode: Usermode
Hook type: Inline/Trampoline
Process: 2800 (iexplore.exe)
Victim module: USER32.dll (0x76f40000 - 0x77009000)
Function: USER32.dll!GetDCEx at 0x76f52d57
Hook address: 0x2a08b7
Hooking module: <unknown>

Disassembly(0):
0x76f52d57 e95bdb3489       JMP 0x2a08b7
0x76f52d5c ba0003fe7f       MOV EDX, 0x7ffe0300
0x76f52d61 ff12             CALL DWORD [EDX]
0x76f52d63 c20c00           RET 0xc
0x76f52d66 85ff             TEST EDI, EDI
0x76f52d68 0f84200c0000     JZ 0x76f5398e
0x76f52d6e 85               DB 0x85

Disassembly(1):
0x2a08b7 55               PUSH EBP
0x2a08b8 8bec             MOV EBP, ESP
0x2a08ba f605e8362b0004   TEST BYTE [0x2b36e8], 0x4
0x2a08c1 56               PUSH ESI
0x2a08c2 57               PUSH EDI
0x2a08c3 8b7d08           MOV EDI, [EBP+0x8]
0x2a08c6 7437             JZ 0x2a08ff
0x2a08c8 e8aba70000       CALL 0x2ab078
0x2a08cd 84c0             TEST AL, AL

************************************************************************
Hook mode: Usermode
Hook type: Inline/Trampoline
Process: 2800 (iexplore.exe)
Victim module: USER32.dll (0x76f40000 - 0x77009000)
Function: USER32.dll!GetMessageA at 0x76f51899
Hook address: 0x29da7a
Hooking module: <unknown>

Disassembly(0):
0x76f51899 e9dcc13489       JMP 0x29da7a
0x76f5189e 8b5510           MOV EDX, [EBP+0x10]
0x76f518a1 8b4d14           MOV ECX, [EBP+0x14]
0x76f518a4 56               PUSH ESI
0x76f518a5 8bf2             MOV ESI, EDX
0x76f518a7 0bf1             OR ESI, ECX
0x76f518a9 b80000feff       MOV EAX, 0xfffe0000
0x76f518ae 85f0             TEST EAX, ESI
0x76f518b0 0f               DB 0xf

Disassembly(1):
0x29da7a 56               PUSH ESI
0x29da7b 8b742408         MOV ESI, [ESP+0x8]
0x29da7f 57               PUSH EDI
0x29da80 ff742418         PUSH DWORD [ESP+0x18]
0x29da84 ff742418         PUSH DWORD [ESP+0x18]
0x29da88 ff742418         PUSH DWORD [ESP+0x18]
0x29da8c 56               PUSH ESI
0x29da8d ff               DB 0xff
0x29da8e 15               DB 0x15
0x29da8f 98               CWDE
0x29da90 1429             ADC AL, 0x29

************************************************************************
Hook mode: Usermode
Hook type: Inline/Trampoline
Process: 2800 (iexplore.exe)
Victim module: USER32.dll (0x76f40000 - 0x77009000)
Function: USER32.dll!GetMessagePos at 0x76f76703
Hook address: 0x29d853
Hooking module: <unknown>

Disassembly(0):
0x76f76703 e94b713289       JMP 0x29d853
0x76f76708 fe               DB 0xfe
0x76f76709 ffc3             INC EBX
0x76f7670b 83650c00         AND DWORD [EBP+0xc], 0x0
0x76f7670f e9a1f0fdff       JMP 0x76f557b5
0x76f76714 8b430c           MOV EAX, [EBX+0xc]
0x76f76717 3bc2             CMP EAX, EDX
0x76f76719 0f               DB 0xf
0x76f7671a 85               DB 0x85

Disassembly(1):
0x29d853 f605e8362b0004   TEST BYTE [0x2b36e8], 0x4
0x29d85a 7423             JZ 0x29d87f
0x29d85c e817d80000       CALL 0x2ab078
0x29d861 84c0             TEST AL, AL
0x29d863 741a             JZ 0x29d87f
0x29d865 8b0db8232b00     MOV ECX, [0x2b23b8]

************************************************************************
Hook mode: Usermode
Hook type: Inline/Trampoline
Process: 2800 (iexplore.exe)
Victim module: USER32.dll (0x76f40000 - 0x77009000)
Function: USER32.dll!GetMessageW at 0x76f5cde8
Hook address: 0x29da52
Hooking module: <unknown>

Disassembly(0):
0x76f5cde8 e9650c3489       JMP 0x29da52
0x76f5cded 8b5510           MOV EDX, [EBP+0x10]
0x76f5cdf0 8b4d14           MOV ECX, [EBP+0x14]
0x76f5cdf3 0bd1             OR EDX, ECX
0x76f5cdf5 b80000feff       MOV EAX, 0xfffe0000
0x76f5cdfa 85d0             TEST EAX, EDX
0x76f5cdfc 0f               DB 0xf
0x76f5cdfd 857801           TEST [EAX+0x1], EDI

Disassembly(1):
0x29da52 56               PUSH ESI
0x29da53 8b742408         MOV ESI, [ESP+0x8]
0x29da57 57               PUSH EDI
0x29da58 ff742418         PUSH DWORD [ESP+0x18]
0x29da5c ff742418         PUSH DWORD [ESP+0x18]
0x29da60 ff742418         PUSH DWORD [ESP+0x18]
0x29da64 56               PUSH ESI
0x29da65 ff               DB 0xff
0x29da66 15               DB 0x15
0x29da67 101429           ADC [ECX+EBP], DL

************************************************************************
Hook mode: Usermode
Hook type: Inline/Trampoline
Process: 2800 (iexplore.exe)
Victim module: USER32.dll (0x76f40000 - 0x77009000)
Function: USER32.dll!GetUpdateRect at 0x76f4a575
Hook address: 0x2a09d0
Hooking module: <unknown>

Disassembly(0):
0x76f4a575 e956643589       JMP 0x2a09d0
0x76f4a57a 8b4d08           MOV ECX, [EBP+0x8]
0x76f4a57d e88e1f0100       CALL 0x76f5c510
0x76f4a582 85c0             TEST EAX, EAX
0x76f4a584 7423             JZ 0x76f4a5a9
0x76f4a586 83786800         CMP DWORD [EAX+0x68], 0x0
0x76f4a58a 7535             JNZ 0x76f4a5c1
0x76f4a58c f6               DB 0xf6

Disassembly(1):
0x2a09d0 55               PUSH EBP
0x2a09d1 8bec             MOV EBP, ESP
0x2a09d3 f605e8362b0004   TEST BYTE [0x2b36e8], 0x4
0x2a09da 53               PUSH EBX
0x2a09db 8b5d08           MOV EBX, [EBP+0x8]
0x2a09de 56               PUSH ESI
0x2a09df 746f             JZ 0x2a0a50
0x2a09e1 e892a60000       CALL 0x2ab078
0x2a09e6 84c0             TEST AL, AL

************************************************************************
Hook mode: Usermode
Hook type: Inline/Trampoline
Process: 2800 (iexplore.exe)
Victim module: USER32.dll (0x76f40000 - 0x77009000)
Function: USER32.dll!GetUpdateRgn at 0x76f71c07
Hook address: 0x2a0a63
Hooking module: <unknown>

Disassembly(0):
0x76f71c07 e957ee3289       JMP 0x2a0a63
0x76f71c0c 56               PUSH ESI
0x76f71c0d 33f6             XOR ESI, ESI
0x76f71c0f 39750c           CMP [EBP+0xc], ESI
0x76f71c12 0f8415710000     JZ 0x76f78d2d
0x76f71c18 8b4d08           MOV ECX, [EBP+0x8]
0x76f71c1b e8               DB 0xe8
0x76f71c1c f0a8fe           TEST AL, 0xfe

Disassembly(1):
0x2a0a63 55               PUSH EBP
0x2a0a64 8bec             MOV EBP, ESP
0x2a0a66 f605e8362b0004   TEST BYTE [0x2b36e8], 0x4
0x2a0a6d 53               PUSH EBX
0x2a0a6e 8b5d08           MOV EBX, [EBP+0x8]
0x2a0a71 56               PUSH ESI
0x2a0a72 7470             JZ 0x2a0ae4
0x2a0a74 e8ffa50000       CALL 0x2ab078
0x2a0a79 84c0             TEST AL, AL

************************************************************************
Hook mode: Usermode
Hook type: Inline/Trampoline
Process: 2800 (iexplore.exe)
Victim module: USER32.dll (0x76f40000 - 0x77009000)
Function: USER32.dll!GetWindowDC at 0x76f54ab7
Hook address: 0x2a0951
Hooking module: <unknown>

Disassembly(0):
0x76f54ab7 e995be3489       JMP 0x2a0951
0x76f54abc ba0003fe7f       MOV EDX, 0x7ffe0300
0x76f54ac1 ff12             CALL DWORD [EDX]
0x76f54ac3 c20400           RET 0x4
0x76f54ac6 80faff           CMP DL, 0xff
0x76f54ac9 0f85cc080000     JNZ 0x76f5539b

Disassembly(1):
0x2a0951 f605e8362b0004   TEST BYTE [0x2b36e8], 0x4
0x2a0958 56               PUSH ESI
0x2a0959 8b742408         MOV ESI, [ESP+0x8]
0x2a095d 7426             JZ 0x2a0985
0x2a095f e814a70000       CALL 0x2ab078
0x2a0964 84c0             TEST AL, AL
0x2a0966 741d             JZ 0x2a0985
0x2a0968 ff               DB 0xff

************************************************************************
Hook mode: Usermode
Hook type: Inline/Trampoline
Process: 2800 (iexplore.exe)
Victim module: USER32.dll (0x76f40000 - 0x77009000)
Function: USER32.dll!OpenInputDesktop at 0x76f45c39
Hook address: 0x29535e
Hooking module: <unknown>

Disassembly(0):
0x76f45c39 e920f73489       JMP 0x29535e
0x76f45c3e ba0003fe7f       MOV EDX, 0x7ffe0300
0x76f45c43 ff12             CALL DWORD [EDX]
0x76f45c45 c20c00           RET 0xc
0x76f45c48 0000             ADD [EAX], AL
0x76f45c4a 895de0           MOV [EBP-0x20], EBX
0x76f45c4d e9               DB 0xe9
0x76f45c4e 1e               PUSH DS
0x76f45c4f 3d               DB 0x3d
0x76f45c50 00               DB 0x0

Disassembly(1):
0x29535e 55               PUSH EBP
0x29535f 8bec             MOV EBP, ESP
0x295361 83ec64           SUB ESP, 0x64
0x295364 f605e8362b0004   TEST BYTE [0x2b36e8], 0x4
0x29536b 742e             JZ 0x29539b
0x29536d e8065d0100       CALL 0x2ab078
0x295372 84c0             TEST AL, AL
0x295374 7425             JZ 0x29539b

************************************************************************
Hook mode: Usermode
Hook type: Inline/Trampoline
Process: 2800 (iexplore.exe)
Victim module: USER32.dll (0x76f40000 - 0x77009000)
Function: USER32.dll!PeekMessageA at 0x76f519a5
Hook address: 0x29dacd
Hooking module: <unknown>

Disassembly(0):
0x76f519a5 e923c13489       JMP 0x29dacd
0x76f519aa 53               PUSH EBX
0x76f519ab 56               PUSH ESI
0x76f519ac 648b3518000000   MOV ESI, [FS:0x18]
0x76f519b3 33c9             XOR ECX, ECX
0x76f519b5 81c6cc060000     ADD ESI, 0x6cc
0x76f519bb 57               PUSH EDI
0x76f519bc 39               DB 0x39

Disassembly(1):
0x29dacd 55               PUSH EBP
0x29dace 8bec             MOV EBP, ESP
0x29dad0 56               PUSH ESI
0x29dad1 8b7508           MOV ESI, [EBP+0x8]
0x29dad4 57               PUSH EDI
0x29dad5 ff7518           PUSH DWORD [EBP+0x18]
0x29dad8 ff7514           PUSH DWORD [EBP+0x14]
0x29dadb ff7510           PUSH DWORD [EBP+0x10]
0x29dade ff750c           PUSH DWORD [EBP+0xc]
0x29dae1 56               PUSH ESI
0x29dae2 ff               DB 0xff
0x29dae3 15               DB 0x15
0x29dae4 54               PUSH ESP

************************************************************************
Hook mode: Usermode
Hook type: Inline/Trampoline
Process: 2800 (iexplore.exe)
Victim module: USER32.dll (0x76f40000 - 0x77009000)
Function: USER32.dll!PeekMessageW at 0x76f5634a
Hook address: 0x29daa2
Hooking module: <unknown>

Disassembly(0):
0x76f5634a e953773489       JMP 0x29daa2
0x76f5634f 53               PUSH EBX
0x76f56350 56               PUSH ESI
0x76f56351 648b3518000000   MOV ESI, [FS:0x18]
0x76f56358 33c9             XOR ECX, ECX
0x76f5635a 81c6cc060000     ADD ESI, 0x6cc
0x76f56360 57               PUSH EDI
0x76f56361 39               DB 0x39

Disassembly(1):
0x29daa2 55               PUSH EBP
0x29daa3 8bec             MOV EBP, ESP
0x29daa5 56               PUSH ESI
0x29daa6 8b7508           MOV ESI, [EBP+0x8]
0x29daa9 57               PUSH EDI
0x29daaa ff7518           PUSH DWORD [EBP+0x18]
0x29daad ff7514           PUSH DWORD [EBP+0x14]
0x29dab0 ff7510           PUSH DWORD [EBP+0x10]
0x29dab3 ff750c           PUSH DWORD [EBP+0xc]
0x29dab6 56               PUSH ESI
0x29dab7 ff               DB 0xff
0x29dab8 15               DB 0x15
0x29dab9 50               PUSH EAX

************************************************************************
Hook mode: Usermode
Hook type: Inline/Trampoline
Process: 2800 (iexplore.exe)
Victim module: USER32.dll (0x76f40000 - 0x77009000)
Function: USER32.dll!RegisterClassA at 0x76f4bc6a
Hook address: 0x29571d
Hooking module: <unknown>

Disassembly(0):
0x76f4bc6a e9ae9a3489       JMP 0x29571d
0x76f4bc6f 83ec30           SUB ESP, 0x30
0x76f4bc72 8b4508           MOV EAX, [EBP+0x8]
0x76f4bc75 56               PUSH ESI
0x76f4bc76 57               PUSH EDI
0x76f4bc77 6a09             PUSH 0x9
0x76f4bc79 59               POP ECX
0x76f4bc7a 8d7004           LEA ESI, [EAX+0x4]
0x76f4bc7d 8b00             MOV EAX, [EAX]
0x76f4bc7f 6a01             PUSH 0x1
0x76f4bc81 8d               DB 0x8d

Disassembly(1):
0x29571d 55               PUSH EBP
0x29571e 8bec             MOV EBP, ESP
0x295720 83ec28           SUB ESP, 0x28
0x295723 f605e8362b0004   TEST BYTE [0x2b36e8], 0x4
0x29572a 56               PUSH ESI
0x29572b 8b7508           MOV ESI, [EBP+0x8]
0x29572e 742e             JZ 0x29575e
0x295730 e843590100       CALL 0x2ab078

************************************************************************
Hook mode: Usermode
Hook type: Inline/Trampoline
Process: 2800 (iexplore.exe)
Victim module: USER32.dll (0x76f40000 - 0x77009000)
Function: USER32.dll!RegisterClassExA at 0x76f46293
Hook address: 0x2957bc
Hooking module: <unknown>

Disassembly(0):
0x76f46293 e924f53489       JMP 0x2957bc
0x76f46298 8b4508           MOV EAX, [EBP+0x8]
0x76f4629b 833830           CMP DWORD [EAX], 0x30
0x76f4629e 0f853e0a0400     JNZ 0x76f86ce2
0x76f462a4 6a01             PUSH 0x1
0x76f462a6 6880000000       PUSH DWORD 0x80

Disassembly(1):
0x2957bc 55               PUSH EBP
0x2957bd 8bec             MOV EBP, ESP
0x2957bf 83ec30           SUB ESP, 0x30
0x2957c2 f605e8362b0004   TEST BYTE [0x2b36e8], 0x4
0x2957c9 56               PUSH ESI
0x2957ca 8b7508           MOV ESI, [EBP+0x8]
0x2957cd 7433             JZ 0x295802
0x2957cf e8a4580100       CALL 0x2ab078

************************************************************************
Hook mode: Usermode
Hook type: Inline/Trampoline
Process: 2800 (iexplore.exe)
Victim module: USER32.dll (0x76f40000 - 0x77009000)
Function: USER32.dll!RegisterClassExW at 0x76f50162
Hook address: 0x29576a
Hooking module: <unknown>

Disassembly(0):
0x76f50162 e903563489       JMP 0x29576a
0x76f50167 8b4508           MOV EAX, [EBP+0x8]
0x76f5016a 833830           CMP DWORD [EAX], 0x30
0x76f5016d 0f85899e0200     JNZ 0x76f79ffc
0x76f50173 6a01             PUSH 0x1
0x76f50175 6880000000       PUSH DWORD 0x80

Disassembly(1):
0x29576a 55               PUSH EBP
0x29576b 8bec             MOV EBP, ESP
0x29576d 83ec30           SUB ESP, 0x30
0x295770 f605e8362b0004   TEST BYTE [0x2b36e8], 0x4
0x295777 56               PUSH ESI
0x295778 8b7508           MOV ESI, [EBP+0x8]
0x29577b 7433             JZ 0x2957b0
0x29577d e8f6580100       CALL 0x2ab078

************************************************************************
Hook mode: Usermode
Hook type: Inline/Trampoline
Process: 2800 (iexplore.exe)
Victim module: USER32.dll (0x76f40000 - 0x77009000)
Function: USER32.dll!RegisterClassW at 0x76f4ed4a
Hook address: 0x2956d0
Hooking module: <unknown>

Disassembly(0):
0x76f4ed4a e981693489       JMP 0x2956d0
0x76f4ed4f 83ec30           SUB ESP, 0x30
0x76f4ed52 8b4508           MOV EAX, [EBP+0x8]
0x76f4ed55 56               PUSH ESI
0x76f4ed56 57               PUSH EDI
0x76f4ed57 6a09             PUSH 0x9
0x76f4ed59 59               POP ECX
0x76f4ed5a 8d7004           LEA ESI, [EAX+0x4]
0x76f4ed5d 8b00             MOV EAX, [EAX]
0x76f4ed5f 6a01             PUSH 0x1
0x76f4ed61 8d               DB 0x8d

Disassembly(1):
0x2956d0 55               PUSH EBP
0x2956d1 8bec             MOV EBP, ESP
0x2956d3 83ec28           SUB ESP, 0x28
0x2956d6 f605e8362b0004   TEST BYTE [0x2b36e8], 0x4
0x2956dd 56               PUSH ESI
0x2956de 8b7508           MOV ESI, [EBP+0x8]
0x2956e1 742e             JZ 0x295711
0x2956e3 e890590100       CALL 0x2ab078

************************************************************************
Hook mode: Usermode
Hook type: Inline/Trampoline
Process: 2800 (iexplore.exe)
Victim module: USER32.dll (0x76f40000 - 0x77009000)
Function: USER32.dll!ReleaseCapture at 0x76f769f2
Hook address: 0x29d963
Hooking module: <unknown>

Disassembly(0):
0x76f769f2 e96c6f3289       JMP 0x29d963
0x76f769f7 fe               DB 0xfe
0x76f769f8 ffc3             INC EBX
0x76f769fa 90               NOP
0x76f769fb 90               NOP
0x76f769fc 90               NOP
0x76f769fd 90               NOP
0x76f769fe 90               NOP
0x76f769ff 8bff             MOV EDI, EDI
0x76f76a01 55               PUSH EBP
0x76f76a02 8bec             MOV EBP, ESP
0x76f76a04 6a30             PUSH 0x30
0x76f76a06 ff7508           PUSH DWORD [EBP+0x8]
0x76f76a09 e8               DB 0xe8

Disassembly(1):
0x29d963 f605e8362b0004   TEST BYTE [0x2b36e8], 0x4
0x29d96a 7441             JZ 0x29d9ad
0x29d96c e807d70000       CALL 0x2ab078
0x29d971 84c0             TEST AL, AL
0x29d973 7438             JZ 0x29d9ad
0x29d975 ff1574122900     CALL DWORD [0x291274]

************************************************************************
Hook mode: Usermode
Hook type: Inline/Trampoline
Process: 2800 (iexplore.exe)
Victim module: USER32.dll (0x76f40000 - 0x77009000)
Function: USER32.dll!ReleaseDC at 0x76f55421
Hook address: 0x2a0990
Hooking module: <unknown>

Disassembly(0):
0x76f55421 e96ab53489       JMP 0x2a0990
0x76f55426 837d0c00         CMP DWORD [EBP+0xc], 0x0
0x76f5542a 0f846b380200     JZ 0x76f78c9b
0x76f55430 ff750c           PUSH DWORD [EBP+0xc]
0x76f55433 ff152013f476     CALL DWORD [0x76f41320]

Disassembly(1):
0x2a0990 f605e8362b0004   TEST BYTE [0x2b36e8], 0x4
0x2a0997 56               PUSH ESI
0x2a0998 8b74240c         MOV ESI, [ESP+0xc]
0x2a099c 7423             JZ 0x2a09c1
0x2a099e e8d5a60000       CALL 0x2ab078
0x2a09a3 84c0             TEST AL, AL
0x2a09a5 741a             JZ 0x2a09c1
0x2a09a7 ff               DB 0xff

************************************************************************
Hook mode: Usermode
Hook type: Inline/Trampoline
Process: 2800 (iexplore.exe)
Victim module: USER32.dll (0x76f40000 - 0x77009000)
Function: USER32.dll!SetCapture at 0x76f76932
Hook address: 0x29d909
Hooking module: <unknown>

Disassembly(0):
0x76f76932 e9d26f3289       JMP 0x29d909
0x76f76937 ba0003fe7f       MOV EDX, 0x7ffe0300
0x76f7693c ff12             CALL DWORD [EDX]
0x76f7693e c20400           RET 0x4
0x76f76941 90               NOP
0x76f76942 90               NOP
0x76f76943 90               NOP
0x76f76944 90               NOP
0x76f76945 90               NOP
0x76f76946 b8               DB 0xb8
0x76f76947 b211             MOV DL, 0x11
0x76f76949 00               DB 0x0

Disassembly(1):
0x29d909 f605e8362b0004   TEST BYTE [0x2b36e8], 0x4
0x29d910 53               PUSH EBX
0x29d911 56               PUSH ESI
0x29d912 57               PUSH EDI
0x29d913 7445             JZ 0x29d95a
0x29d915 e85ed70000       CALL 0x2ab078
0x29d91a 84c0             TEST AL, AL
0x29d91c 743c             JZ 0x29d95a
0x29d91e 8b               DB 0x8b
0x29d91f 5c               POP ESP
0x29d920 24               DB 0x24

************************************************************************
Hook mode: Usermode
Hook type: Inline/Trampoline
Process: 2800 (iexplore.exe)
Victim module: USER32.dll (0x76f40000 - 0x77009000)
Function: USER32.dll!SetCursorPos at 0x76f8c1b0
Hook address: 0x29d8cc
Hooking module: <unknown>

Disassembly(0):
0x76f8c1b0 e917173189       JMP 0x29d8cc
0x76f8c1b5 6a74             PUSH 0x74
0x76f8c1b7 ff750c           PUSH DWORD [EBP+0xc]
0x76f8c1ba ff7508           PUSH DWORD [EBP+0x8]
0x76f8c1bd e80a1afcff       CALL 0x76f4dbcc
0x76f8c1c2 5d               POP EBP
0x76f8c1c3 c20800           RET 0x8
0x76f8c1c6 90               NOP
0x76f8c1c7 90               NOP

Disassembly(1):
0x29d8cc f605e8362b0004   TEST BYTE [0x2b36e8], 0x4
0x29d8d3 742e             JZ 0x29d903
0x29d8d5 e89ed70000       CALL 0x2ab078
0x29d8da 84c0             TEST AL, AL
0x29d8dc 7425             JZ 0x29d903
0x29d8de a1b8232b00       MOV EAX, [0x2b23b8]
0x29d8e3 8b               DB 0x8b

************************************************************************
Hook mode: Usermode
Hook type: Inline/Trampoline
Process: 2800 (iexplore.exe)
Victim module: USER32.dll (0x76f40000 - 0x77009000)
Function: USER32.dll!SwitchDesktop at 0x76f4476b
Hook address: 0x2953ae
Hooking module: <unknown>

Disassembly(0):
0x76f4476b e93e0c3589       JMP 0x2953ae
0x76f44770 6a00             PUSH 0x0
0x76f44772 ff7508           PUSH DWORD [EBP+0x8]
0x76f44775 e8a2020000       CALL 0x76f44a1c
0x76f4477a 5d               POP EBP
0x76f4477b c20400           RET 0x4
0x76f4477e 33c0             XOR EAX, EAX
0x76f44780 e9               DB 0xe9
0x76f44781 3a               DB 0x3a
0x76f44782 73               DB 0x73

Disassembly(1):
0x2953ae f605e8362b0004   TEST BYTE [0x2b36e8], 0x4
0x2953b5 740f             JZ 0x2953c6
0x2953b7 e8bc5c0100       CALL 0x2ab078
0x2953bc 84c0             TEST AL, AL
0x2953be 7406             JZ 0x2953c6
0x2953c0 33c0             XOR EAX, EAX
0x2953c2 40               INC EAX
0x2953c3 c20400           RET 0x4

************************************************************************
Hook mode: Usermode
Hook type: Inline/Trampoline
Process: 2800 (iexplore.exe)
Victim module: USER32.dll (0x76f40000 - 0x77009000)
Function: USER32.dll!TranslateMessage at 0x76f564c7
Hook address: 0x29f91f
Hooking module: <unknown>

Disassembly(0):
0x76f564c7 e953943489       JMP 0x29f91f
0x76f564cc 56               PUSH ESI
0x76f564cd 8b7508           MOV ESI, [EBP+0x8]
0x76f564d0 b8e5000000       MOV EAX, 0xe5
0x76f564d5 66394608         CMP [ESI+0x8], AX
0x76f564d9 0f84e4dc0200     JZ 0x76f841c3

Disassembly(1):
0x29f91f 55               PUSH EBP
0x29f920 8bec             MOV EBP, ESP
0x29f922 83e4f8           AND ESP, -0x8
0x29f925 81ec74030000     SUB ESP, 0x374
0x29f92b 53               PUSH EBX
0x29f92c 8b5d08           MOV EBX, [EBP+0x8]
0x29f92f 56               PUSH ESI
0x29f930 57               PUSH EDI
0x29f931 85db             TEST EBX, EBX
0x29f933 0f               DB 0xf
0x29f934 843c01           TEST [ECX+EAX], BH

************************************************************************
Hook mode: Usermode
Hook type: Inline/Trampoline
Process: 2800 (iexplore.exe)
Victim module: WS2_32.dll (0x75ad0000 - 0x75b05000)
Function: WS2_32.dll!WSASend at 0x75ad4406
Hook address: 0x29ff16
Hooking module: <unknown>

Disassembly(0):
0x75ad4406 e90bbb7c8a       JMP 0x29ff16
0x75ad440b 51               PUSH ECX
0x75ad440c 51               PUSH ECX
0x75ad440d 813d4870af75292ead75 CMP DWORD [0x75af7048], 0x75ad2e29
0x75ad4417 56               PUSH ESI
0x75ad4418 0f85ca010000     JNZ 0x75ad45e8

Disassembly(1):
0x29ff16 55               PUSH EBP
0x29ff17 8bec             MOV EBP, ESP
0x29ff19 83e4f8           AND ESP, -0x8
0x29ff1c 56               PUSH ESI
0x29ff1d 57               PUSH EDI
0x29ff1e e855b10000       CALL 0x2ab078
0x29ff23 8b750c           MOV ESI, [EBP+0xc]
0x29ff26 84c0             TEST AL, AL
0x29ff28 7419             JZ 0x29ff43
0x29ff2a 837d1000         CMP DWORD [EBP+0x10], 0x0

************************************************************************
Hook mode: Usermode
Hook type: Inline/Trampoline
Process: 2800 (iexplore.exe)
Victim module: WS2_32.dll (0x75ad0000 - 0x75b05000)
Function: WS2_32.dll!closesocket at 0x75ad3918
Hook address: 0x29febd
Hooking module: <unknown>

Disassembly(0):
0x75ad3918 e9a0c57c8a       JMP 0x29febd
0x75ad391d 51               PUSH ECX
0x75ad391e 53               PUSH EBX
0x75ad391f 56               PUSH ESI
0x75ad3920 be292ead75       MOV ESI, 0x75ad2e29
0x75ad3925 33db             XOR EBX, EBX
0x75ad3927 57               PUSH EDI
0x75ad3928 39354870af75     CMP [0x75af7048], ESI
0x75ad392e 0f               DB 0xf
0x75ad392f 85               DB 0x85

Disassembly(1):
0x29febd e8b6b10000       CALL 0x2ab078
0x29fec2 84c0             TEST AL, AL
0x29fec4 7429             JZ 0x29feef
0x29fec6 56               PUSH ESI
0x29fec7 be68272b00       MOV ESI, 0x2b2768
0x29fecc 56               PUSH ESI
0x29fecd ff154c122900     CALL DWORD [0x29124c]
0x29fed3 ff               DB 0xff
0x29fed4 74               DB 0x74

************************************************************************
Hook mode: Usermode
Hook type: Inline/Trampoline
Process: 2800 (iexplore.exe)
Victim module: WS2_32.dll (0x75ad0000 - 0x75b05000)
Function: WS2_32.dll!send at 0x75ad6f01
Hook address: 0x29fef5
Hooking module: <unknown>

Disassembly(0):
0x75ad6f01 e9ef8f7c8a       JMP 0x29fef5
0x75ad6f06 83ec10           SUB ESP, 0x10
0x75ad6f09 56               PUSH ESI
0x75ad6f0a 57               PUSH EDI
0x75ad6f0b 33ff             XOR EDI, EDI
0x75ad6f0d 813d4870af75292ead75 CMP DWORD [0x75af7048], 0x75ad2e29
0x75ad6f17 757b             JNZ 0x75ad6f94

Disassembly(1):
0x29fef5 55               PUSH EBP
0x29fef6 8bec             MOV EBP, ESP
0x29fef8 e87bb10000       CALL 0x2ab078
0x29fefd 84c0             TEST AL, AL
0x29feff 740e             JZ 0x29ff0f
0x29ff01 ff7508           PUSH DWORD [EBP+0x8]
0x29ff04 8b4510           MOV EAX, [EBP+0x10]
0x29ff07 8b4d0c           MOV ECX, [EBP+0xc]
0x29ff0a e8               DB 0xe8
0x29ff0b 35               DB 0x35
0x29ff0c fd               STD

************************************************************************
Hook mode: Usermode
Hook type: Inline/Trampoline
Process: 2800 (iexplore.exe)
Victim module: CRYPT32.dll (0x754d0000 - 0x755ed000)
Function: CRYPT32.dll!PFXImportCertStore at 0x75560ddc
Hook address: 0x2ac8ed
Hooking module: <unknown>

Disassembly(0):
0x75560ddc e90cbbd48a       JMP 0x2ac8ed
0x75560de1 81ec84000000     SUB ESP, 0x84
0x75560de7 a108535875       MOV EAX, [0x75585308]
0x75560dec 33c5             XOR EAX, EBP
0x75560dee 8945fc           MOV [EBP-0x4], EAX
0x75560df1 53               PUSH EBX
0x75560df2 8b               DB 0x8b
0x75560df3 5d               POP EBP

Disassembly(1):
0x2ac8ed 55               PUSH EBP
0x2ac8ee 8bec             MOV EBP, ESP
0x2ac8f0 83e4f8           AND ESP, -0x8
0x2ac8f3 81ecfc020000     SUB ESP, 0x2fc
0x2ac8f9 53               PUSH EBX
0x2ac8fa 8b5d08           MOV EBX, [EBP+0x8]
0x2ac8fd 56               PUSH ESI
0x2ac8fe 57               PUSH EDI
0x2ac8ff ff7510           PUSH DWORD [EBP+0x10]
0x2ac902 ff750c           PUSH DWORD [EBP+0xc]

************************************************************************
Hook mode: Usermode
Hook type: Inline/Trampoline
Process: 2800 (iexplore.exe)
Victim module: WININET.dll (0x760b0000 - 0x761a5000)
Function: WININET.dll!HttpQueryInfoA at 0x760ca33e
Hook address: 0x2aa4ad
Hooking module: <unknown>

Disassembly(0):
0x760ca33e e96a011e8a       JMP 0x2aa4ad
0x760ca343 83ec6c           SUB ESP, 0x6c
0x760ca346 a1a0931676       MOV EAX, [0x761693a0]
0x760ca34b 33c5             XOR EAX, EBP
0x760ca34d 8945fc           MOV [EBP-0x4], EAX
0x760ca350 8b4510           MOV EAX, [EBP+0x10]
0x760ca353 8945d8           MOV [EBP-0x28], EAX

Disassembly(1):
0x2aa4ad 55               PUSH EBP
0x2aa4ae 8bec             MOV EBP, ESP
0x2aa4b0 e8c30b0000       CALL 0x2ab078
0x2aa4b5 84c0             TEST AL, AL
0x2aa4b7 7441             JZ 0x2aa4fa
0x2aa4b9 56               PUSH ESI
0x2aa4ba 57               PUSH EDI
0x2aa4bb bfb0352b00       MOV EDI, 0x2b35b0
0x2aa4c0 57               PUSH EDI
0x2aa4c1 ff               DB 0xff
0x2aa4c2 15               DB 0x15
0x2aa4c3 4c               DEC ESP
0x2aa4c4 12               DB 0x12

************************************************************************
Hook mode: Usermode
Hook type: Inline/Trampoline
Process: 2800 (iexplore.exe)
Victim module: WININET.dll (0x760b0000 - 0x761a5000)
Function: WININET.dll!HttpSendRequestA at 0x761418f8
Hook address: 0x2aa229
Hooking module: <unknown>

Disassembly(0):
0x761418f8 e92c89168a       JMP 0x2aa229
0x761418fd 83ec38           SUB ESP, 0x38
0x76141900 56               PUSH ESI
0x76141901 6a38             PUSH 0x38
0x76141903 8d45c8           LEA EAX, [EBP-0x38]
0x76141906 6a00             PUSH 0x0
0x76141908 50               PUSH EAX
0x76141909 e80d00f7ff       CALL 0x760b191b
0x7614190e 83               DB 0x83
0x7614190f c4               DB 0xc4

Disassembly(1):
0x2aa229 55               PUSH EBP
0x2aa22a 8bec             MOV EBP, ESP
0x2aa22c e8470e0000       CALL 0x2ab078
0x2aa231 84c0             TEST AL, AL
0x2aa233 743d             JZ 0x2aa272
0x2aa235 837d1000         CMP DWORD [EBP+0x10], 0x0
0x2aa239 7422             JZ 0x2aa25d
0x2aa23b 837d0c00         CMP DWORD [EBP+0xc], 0x0
0x2aa23f 741c             JZ 0x2aa25d

************************************************************************
Hook mode: Usermode
Hook type: Inline/Trampoline
Process: 2800 (iexplore.exe)
Victim module: WININET.dll (0x760b0000 - 0x761a5000)
Function: WININET.dll!HttpSendRequestExA at 0x76141812
Hook address: 0x2aa319
Hooking module: <unknown>

Disassembly(0):
0x76141812 e9028b168a       JMP 0x2aa319
0x76141817 83ec40           SUB ESP, 0x40
0x7614181a 53               PUSH EBX
0x7614181b 56               PUSH ESI
0x7614181c 57               PUSH EDI
0x7614181d 6a38             PUSH 0x38
0x7614181f 33f6             XOR ESI, ESI
0x76141821 8d45c0           LEA EAX, [EBP-0x40]
0x76141824 56               PUSH ESI
0x76141825 50               PUSH EAX
0x76141826 33ff             XOR EDI, EDI
0x76141828 33db             XOR EBX, EBX

Disassembly(1):
0x2aa319 55               PUSH EBP
0x2aa31a 8bec             MOV EBP, ESP
0x2aa31c 83e4f8           AND ESP, -0x8
0x2aa31f 83ec2c           SUB ESP, 0x2c
0x2aa322 56               PUSH ESI
0x2aa323 e8500d0000       CALL 0x2ab078
0x2aa328 84c0             TEST AL, AL
0x2aa32a 746c             JZ 0x2aa398
0x2aa32c 33f6             XOR ESI, ESI
0x2aa32e 6a28             PUSH 0x28
0x2aa330 8d               DB 0x8d

************************************************************************
Hook mode: Usermode
Hook type: Inline/Trampoline
Process: 2800 (iexplore.exe)
Victim module: WININET.dll (0x760b0000 - 0x761a5000)
Function: WININET.dll!HttpSendRequestExW at 0x760e4a3d
Hook address: 0x2aa27d
Hooking module: <unknown>

Disassembly(0):
0x760e4a3d e93b581c8a       JMP 0x2aa27d
0x760e4a42 83ec4c           SUB ESP, 0x4c
0x760e4a45 53               PUSH EBX
0x760e4a46 57               PUSH EDI
0x760e4a47 33ff             XOR EDI, EDI
0x760e4a49 6a38             PUSH 0x38
0x760e4a4b 8d45b4           LEA EAX, [EBP-0x4c]
0x760e4a4e 57               PUSH EDI
0x760e4a4f 50               PUSH EAX
0x760e4a50 897dfc           MOV [EBP-0x4], EDI
0x760e4a53 89               DB 0x89
0x760e4a54 7d               DB 0x7d

Disassembly(1):
0x2aa27d 55               PUSH EBP
0x2aa27e 8bec             MOV EBP, ESP
0x2aa280 83e4f8           AND ESP, -0x8
0x2aa283 83ec2c           SUB ESP, 0x2c
0x2aa286 56               PUSH ESI
0x2aa287 e8ec0d0000       CALL 0x2ab078
0x2aa28c 84c0             TEST AL, AL
0x2aa28e 746c             JZ 0x2aa2fc
0x2aa290 33f6             XOR ESI, ESI
0x2aa292 6a28             PUSH 0x28
0x2aa294 8d               DB 0x8d

************************************************************************
Hook mode: Usermode
Hook type: Inline/Trampoline
Process: 2800 (iexplore.exe)
Victim module: WININET.dll (0x760b0000 - 0x761a5000)
Function: WININET.dll!HttpSendRequestW at 0x760dba12
Hook address: 0x2aa1d5
Hooking module: <unknown>

Disassembly(0):
0x760dba12 e9bee71c8a       JMP 0x2aa1d5
0x760dba17 83ec40           SUB ESP, 0x40
0x760dba1a 53               PUSH EBX
0x760dba1b 56               PUSH ESI
0x760dba1c 57               PUSH EDI
0x760dba1d 33f6             XOR ESI, ESI
0x760dba1f 6a38             PUSH 0x38
0x760dba21 8d45c0           LEA EAX, [EBP-0x40]
0x760dba24 56               PUSH ESI
0x760dba25 50               PUSH EAX
0x760dba26 33ff             XOR EDI, EDI
0x760dba28 33db             XOR EBX, EBX

Disassembly(1):
0x2aa1d5 55               PUSH EBP
0x2aa1d6 8bec             MOV EBP, ESP
0x2aa1d8 e89b0e0000       CALL 0x2ab078
0x2aa1dd 84c0             TEST AL, AL
0x2aa1df 743d             JZ 0x2aa21e
0x2aa1e1 837d1000         CMP DWORD [EBP+0x10], 0x0
0x2aa1e5 7422             JZ 0x2aa209
0x2aa1e7 837d0c00         CMP DWORD [EBP+0xc], 0x0
0x2aa1eb 741c             JZ 0x2aa209

************************************************************************
Hook mode: Usermode
Hook type: Inline/Trampoline
Process: 2800 (iexplore.exe)
Victim module: WININET.dll (0x760b0000 - 0x761a5000)
Function: WININET.dll!InternetCloseHandle at 0x760cab49
Hook address: 0x2aa3b5
Hooking module: <unknown>

Disassembly(0):
0x760cab49 e967f81d8a       JMP 0x2aa3b5
0x760cab4e 83ec38           SUB ESP, 0x38
0x760cab51 56               PUSH ESI
0x760cab52 6a38             PUSH 0x38
0x760cab54 8d45c8           LEA EAX, [EBP-0x38]
0x760cab57 6a00             PUSH 0x0
0x760cab59 50               PUSH EAX
0x760cab5a e8bc6dfeff       CALL 0x760b191b
0x760cab5f 83               DB 0x83
0x760cab60 c4               DB 0xc4

Disassembly(1):
0x2aa3b5 53               PUSH EBX
0x2aa3b6 56               PUSH ESI
0x2aa3b7 8b74240c         MOV ESI, [ESP+0xc]
0x2aa3bb 56               PUSH ESI
0x2aa3bc ff1500152900     CALL DWORD [0x291500]
0x2aa3c2 8bd8             MOV EBX, EAX
0x2aa3c4 e8af0c0000       CALL 0x2ab078
0x2aa3c9 84c0             TEST AL, AL
0x2aa3cb 7424             JZ 0x2aa3f1

************************************************************************
Hook mode: Usermode
Hook type: Inline/Trampoline
Process: 2800 (iexplore.exe)
Victim module: WININET.dll (0x760b0000 - 0x761a5000)
Function: WININET.dll!InternetQueryDataAvailable at 0x760d5e5d
Hook address: 0x2aa481
Hooking module: <unknown>

Disassembly(0):
0x760d5e5d e91f461d8a       JMP 0x2aa481
0x760d5e62 83ec64           SUB ESP, 0x64
0x760d5e65 a1a0931676       MOV EAX, [0x761693a0]
0x760d5e6a 33c5             XOR EAX, EBP
0x760d5e6c 8945fc           MOV [EBP-0x4], EAX
0x760d5e6f 8b450c           MOV EAX, [EBP+0xc]
0x760d5e72 53               PUSH EBX
0x760d5e73 8b               DB 0x8b
0x760d5e74 5d               POP EBP

Disassembly(1):
0x2aa481 55               PUSH EBP
0x2aa482 8bec             MOV EBP, ESP
0x2aa484 e8ef0b0000       CALL 0x2ab078
0x2aa489 84c0             TEST AL, AL
0x2aa48b 7415             JZ 0x2aa4a2
0x2aa48d ff750c           PUSH DWORD [EBP+0xc]
0x2aa490 8d4508           LEA EAX, [EBP+0x8]
0x2aa493 6a00             PUSH 0x0
0x2aa495 6a00             PUSH 0x0
0x2aa497 50               PUSH EAX
0x2aa498 e8               DB 0xe8

************************************************************************
Hook mode: Usermode
Hook type: Inline/Trampoline
Process: 2800 (iexplore.exe)
Victim module: WININET.dll (0x760b0000 - 0x761a5000)
Function: WININET.dll!InternetReadFile at 0x760cb406
Hook address: 0x2aa3f8
Hooking module: <unknown>

Disassembly(0):
0x760cb406 e9edef1d8a       JMP 0x2aa3f8
0x760cb40b 83ec38           SUB ESP, 0x38
0x760cb40e 56               PUSH ESI
0x760cb40f 6a38             PUSH 0x38
0x760cb411 8d45c8           LEA EAX, [EBP-0x38]
0x760cb414 6a00             PUSH 0x0
0x760cb416 50               PUSH EAX
0x760cb417 e8ff64feff       CALL 0x760b191b
0x760cb41c 83               DB 0x83
0x760cb41d c4               DB 0xc4

Disassembly(1):
0x2aa3f8 55               PUSH EBP
0x2aa3f9 8bec             MOV EBP, ESP
0x2aa3fb e8780c0000       CALL 0x2ab078
0x2aa400 84c0             TEST AL, AL
0x2aa402 7428             JZ 0x2aa42c
0x2aa404 33c0             XOR EAX, EAX
0x2aa406 39450c           CMP [EBP+0xc], EAX
0x2aa409 7421             JZ 0x2aa42c
0x2aa40b 394510           CMP [EBP+0x10], EAX
0x2aa40e 761c             JBE 0x2aa42c

************************************************************************
Hook mode: Usermode
Hook type: Inline/Trampoline
Process: 2800 (iexplore.exe)
Victim module: WININET.dll (0x760b0000 - 0x761a5000)
Function: WININET.dll!InternetReadFileExA at 0x760fae46
Hook address: 0x2aa437
Hooking module: <unknown>

Disassembly(0):
0x760fae46 e9ecf51a8a       JMP 0x2aa437
0x760fae4b 83ec78           SUB ESP, 0x78
0x760fae4e a1a0931676       MOV EAX, [0x761693a0]
0x760fae53 33c5             XOR EAX, EBP
0x760fae55 8945fc           MOV [EBP-0x4], EAX
0x760fae58 8b4508           MOV EAX, [EBP+0x8]
0x760fae5b 53               PUSH EBX
0x760fae5c 56               PUSH ESI
0x760fae5d 8b               DB 0x8b

Disassembly(1):
0x2aa437 55               PUSH EBP
0x2aa438 8bec             MOV EBP, ESP
0x2aa43a 56               PUSH ESI
0x2aa43b e8380c0000       CALL 0x2ab078
0x2aa440 8b750c           MOV ESI, [EBP+0xc]
0x2aa443 84c0             TEST AL, AL
0x2aa445 7425             JZ 0x2aa46c
0x2aa447 85f6             TEST ESI, ESI
0x2aa449 7421             JZ 0x2aa46c
0x2aa44b 8b5614           MOV EDX, [ESI+0x14]
0x2aa44e 85               DB 0x85

************************************************************************
Hook mode: Usermode
Hook type: Inline/Trampoline
Process: 2816 (conhost.exe)
Victim module: ntdll.dll (0x771a0000 - 0x772dc000)
Function: ntdll.dll!LdrLoadDll at 0x772022b8
Hook address: 0x385a6e
Hooking module: <unknown>

Disassembly(0):
0x772022b8 e9b1371889       JMP 0x385a6e
0x772022bd 51               PUSH ECX
0x772022be 51               PUSH ECX
0x772022bf a158751f77       MOV EAX, [0x771f7558]
0x772022c4 53               PUSH EBX
0x772022c5 56               PUSH ESI
0x772022c6 8b7508           MOV ESI, [EBP+0x8]
0x772022c9 83c801           OR EAX, 0x1
0x772022cc 57               PUSH EDI
0x772022cd bb               DB 0xbb
0x772022ce a2               DB 0xa2
0x772022cf 7e               DB 0x7e

Disassembly(1):
0x385a6e 55               PUSH EBP
0x385a6f 8bec             MOV EBP, ESP
0x385a71 e802560100       CALL 0x39b078
0x385a76 84c0             TEST AL, AL
0x385a78 7507             JNZ 0x385a81
0x385a7a 5d               POP EBP
0x385a7b ff2520373a00     JMP DWORD [0x3a3720]
0x385a81 53               PUSH EBX
0x385a82 56               PUSH ESI
0x385a83 8b7514           MOV ESI, [EBP+0x14]

************************************************************************
Hook mode: Usermode
Hook type: Inline/Trampoline
Process: 2816 (conhost.exe)
Victim module: ntdll.dll (0x771a0000 - 0x772dc000)
Function: ntdll.dll!NtCreateUserProcess at 0x771e5778
Hook address: 0x385945
Hooking module: <unknown>

Disassembly(0):
0x771e5778 e9c8011a89       JMP 0x385945
0x771e577d ba0003fe7f       MOV EDX, 0x7ffe0300
0x771e5782 ff12             CALL DWORD [EDX]
0x771e5784 c22c00           RET 0x2c
0x771e5787 90               NOP
0x771e5788 b85e000000       MOV EAX, 0x5e
0x771e578d ba               DB 0xba
0x771e578e 0003             ADD [EBX], AL

Disassembly(1):
0x385945 55               PUSH EBP
0x385946 8bec             MOV EBP, ESP
0x385948 81eccc020000     SUB ESP, 0x2cc
0x38594e 53               PUSH EBX
0x38594f ff7530           PUSH DWORD [EBP+0x30]
0x385952 8b5d08           MOV EBX, [EBP+0x8]
0x385955 ff752c           PUSH DWORD [EBP+0x2c]
0x385958 ff7528           PUSH DWORD [EBP+0x28]
0x38595b ff               DB 0xff
0x38595c 75               DB 0x75

************************************************************************
Hook mode: Usermode
Hook type: Inline/Trampoline
Process: 2816 (conhost.exe)
Victim module: ntdll.dll (0x771a0000 - 0x772dc000)
Function: ntdll.dll!ZwCreateUserProcess at 0x771e5778
Hook address: 0x385945
Hooking module: <unknown>

Disassembly(0):
0x771e5778 e9c8011a89       JMP 0x385945
0x771e577d ba0003fe7f       MOV EDX, 0x7ffe0300
0x771e5782 ff12             CALL DWORD [EDX]
0x771e5784 c22c00           RET 0x2c
0x771e5787 90               NOP
0x771e5788 b85e000000       MOV EAX, 0x5e
0x771e578d ba               DB 0xba
0x771e578e 0003             ADD [EBX], AL

Disassembly(1):
0x385945 55               PUSH EBP
0x385946 8bec             MOV EBP, ESP
0x385948 81eccc020000     SUB ESP, 0x2cc
0x38594e 53               PUSH EBX
0x38594f ff7530           PUSH DWORD [EBP+0x30]
0x385952 8b5d08           MOV EBX, [EBP+0x8]
0x385955 ff752c           PUSH DWORD [EBP+0x2c]
0x385958 ff7528           PUSH DWORD [EBP+0x28]
0x38595b ff               DB 0xff
0x38595c 75               DB 0x75

************************************************************************
Hook mode: Usermode
Hook type: Inline/Trampoline
Process: 2816 (conhost.exe)
Victim module: kernel32.dll (0x75960000 - 0x75a34000)
Function: kernel32.dll!GetFileAttributesExW at 0x759a273d
Hook address: 0x385b0e
Hooking module: <unknown>

Disassembly(0):
0x759a273d e9cc339e8a       JMP 0x385b0e
0x759a2742 5d               POP EBP
0x759a2743 eb05             JMP 0x759a274a
0x759a2745 90               NOP
0x759a2746 90               NOP
0x759a2747 90               NOP
0x759a2748 90               NOP
0x759a2749 90               NOP
0x759a274a ff25341a9675     JMP DWORD [0x75961a34]
0x759a2750 33c9             XOR ECX, ECX
0x759a2752 39               DB 0x39
0x759a2753 8d               DB 0x8d
0x759a2754 60               PUSHA

Disassembly(1):
0x385b0e 55               PUSH EBP
0x385b0f 8bec             MOV EBP, ESP
0x385b11 817d0c6063f188   CMP DWORD [EBP+0xc], 0x88f16360
0x385b18 57               PUSH EDI
0x385b19 7551             JNZ 0x385b6c
0x385b1b 837d0800         CMP DWORD [EBP+0x8], 0x0
0x385b1f 744b             JZ 0x385b6c
0x385b21 e852550100       CALL 0x39b078

************************************************************************
Hook mode: Usermode
Hook type: Inline/Trampoline
Process: 2816 (conhost.exe)
Victim module: USER32.dll (0x76f40000 - 0x77009000)
Function: USER32.dll!BeginPaint at 0x76f55d14
Hook address: 0x390807
Hooking module: <unknown>

Disassembly(0):
0x76f55d14 e9eeaa4389       JMP 0x390807
0x76f55d19 ba0003fe7f       MOV EDX, 0x7ffe0300
0x76f55d1e ff12             CALL DWORD [EDX]
0x76f55d20 c20800           RET 0x8
0x76f55d23 837d0c00         CMP DWORD [EBP+0xc], 0x0
0x76f55d27 0f               DB 0xf
0x76f55d28 853e             TEST [ESI], EDI
0x76f55d2a a801             TEST AL, 0x1

Disassembly(1):
0x390807 f605e8363a0004   TEST BYTE [0x3a36e8], 0x4
0x39080e 56               PUSH ESI
0x39080f 8b74240c         MOV ESI, [ESP+0xc]
0x390813 57               PUSH EDI
0x390814 8b7c240c         MOV EDI, [ESP+0xc]
0x390818 7450             JZ 0x39086a
0x39081a e859a80000       CALL 0x39b078

************************************************************************
Hook mode: Usermode
Hook type: Inline/Trampoline
Process: 2816 (conhost.exe)
Victim module: USER32.dll (0x76f40000 - 0x77009000)
Function: USER32.dll!CallWindowProcA at 0x76f72bd3
Hook address: 0x38564b
Hooking module: <unknown>

Disassembly(0):
0x76f72bd3 e9732a4189       JMP 0x38564b
0x76f72bd8 6a01             PUSH 0x1
0x76f72bda ff7518           PUSH DWORD [EBP+0x18]
0x76f72bdd ff7514           PUSH DWORD [EBP+0x14]
0x76f72be0 ff7510           PUSH DWORD [EBP+0x10]
0x76f72be3 ff750c           PUSH DWORD [EBP+0xc]
0x76f72be6 ff7508           PUSH DWORD [EBP+0x8]
0x76f72be9 e8               DB 0xe8
0x76f72bea f2               DB 0xf2

Disassembly(1):
0x38564b 55               PUSH EBP
0x38564c 8bec             MOV EBP, ESP
0x38564e f605e8363a0004   TEST BYTE [0x3a36e8], 0x4
0x385655 56               PUSH ESI
0x385656 8b7510           MOV ESI, [EBP+0x10]
0x385659 7421             JZ 0x38567c
0x38565b e8185a0100       CALL 0x39b078
0x385660 84c0             TEST AL, AL
0x385662 74               DB 0x74

************************************************************************
Hook mode: Usermode
Hook type: Inline/Trampoline
Process: 2816 (conhost.exe)
Victim module: USER32.dll (0x76f40000 - 0x77009000)
Function: USER32.dll!CallWindowProcW at 0x76f51b3c
Hook address: 0x385602
Hooking module: <unknown>

Disassembly(0):
0x76f51b3c e9c13a4389       JMP 0x385602
0x76f51b41 6a00             PUSH 0x0
0x76f51b43 ff7518           PUSH DWORD [EBP+0x18]
0x76f51b46 ff7514           PUSH DWORD [EBP+0x14]
0x76f51b49 ff7510           PUSH DWORD [EBP+0x10]
0x76f51b4c ff750c           PUSH DWORD [EBP+0xc]
0x76f51b4f ff7508           PUSH DWORD [EBP+0x8]
0x76f51b52 e8               DB 0xe8
0x76f51b53 89               DB 0x89

Disassembly(1):
0x385602 55               PUSH EBP
0x385603 8bec             MOV EBP, ESP
0x385605 f605e8363a0004   TEST BYTE [0x3a36e8], 0x4
0x38560c 56               PUSH ESI
0x38560d 8b7510           MOV ESI, [EBP+0x10]
0x385610 7421             JZ 0x385633
0x385612 e8615a0100       CALL 0x39b078
0x385617 84c0             TEST AL, AL
0x385619 74               DB 0x74

************************************************************************
Hook mode: Usermode
Hook type: Inline/Trampoline
Process: 2816 (conhost.exe)
Victim module: USER32.dll (0x76f40000 - 0x77009000)
Function: USER32.dll!DefDlgProcA at 0x76f671e4
Hook address: 0x38549e
Hooking module: <unknown>

Disassembly(0):
0x76f671e4 e9b5e24189       JMP 0x38549e
0x76f671e9 8b4d08           MOV ECX, [EBP+0x8]
0x76f671ec e81f53ffff       CALL 0x76f5c510
0x76f671f1 85c0             TEST EAX, EAX
0x76f671f3 7411             JZ 0x76f67206
0x76f671f5 6a01             PUSH 0x1
0x76f671f7 ff7514           PUSH DWORD [EBP+0x14]
0x76f671fa ff               DB 0xff
0x76f671fb 75               DB 0x75

Disassembly(1):
0x38549e 55               PUSH EBP
0x38549f 8bec             MOV EBP, ESP
0x3854a1 f605e8363a0004   TEST BYTE [0x3a36e8], 0x4
0x3854a8 56               PUSH ESI
0x3854a9 8b750c           MOV ESI, [EBP+0xc]
0x3854ac 7421             JZ 0x3854cf
0x3854ae e8c55b0100       CALL 0x39b078
0x3854b3 84c0             TEST AL, AL
0x3854b5 74               DB 0x74

************************************************************************
Hook mode: Usermode
Hook type: Inline/Trampoline
Process: 2816 (conhost.exe)
Victim module: USER32.dll (0x76f40000 - 0x77009000)
Function: USER32.dll!DefDlgProcW at 0x76f75bc1
Hook address: 0x385458
Hooking module: <unknown>

Disassembly(0):
0x76f75bc1 e992f84089       JMP 0x385458
0x76f75bc6 8b4d08           MOV ECX, [EBP+0x8]
0x76f75bc9 e84269feff       CALL 0x76f5c510
0x76f75bce 85c0             TEST EAX, EAX
0x76f75bd0 7411             JZ 0x76f75be3
0x76f75bd2 6a00             PUSH 0x0
0x76f75bd4 ff7514           PUSH DWORD [EBP+0x14]
0x76f75bd7 ff               DB 0xff
0x76f75bd8 75               DB 0x75

Disassembly(1):
0x385458 55               PUSH EBP
0x385459 8bec             MOV EBP, ESP
0x38545b f605e8363a0004   TEST BYTE [0x3a36e8], 0x4
0x385462 56               PUSH ESI
0x385463 8b750c           MOV ESI, [EBP+0xc]
0x385466 7421             JZ 0x385489
0x385468 e80b5c0100       CALL 0x39b078
0x38546d 84c0             TEST AL, AL
0x38546f 74               DB 0x74

************************************************************************
Hook mode: Usermode
Hook type: Inline/Trampoline
Process: 2816 (conhost.exe)
Victim module: USER32.dll (0x76f40000 - 0x77009000)
Function: USER32.dll!DefFrameProcA at 0x76f725b7
Hook address: 0x38552d
Hooking module: <unknown>

Disassembly(0):
0x76f725b7 e9712f4189       JMP 0x38552d
0x76f725bc 6a01             PUSH 0x1
0x76f725be ff7518           PUSH DWORD [EBP+0x18]
0x76f725c1 ff7514           PUSH DWORD [EBP+0x14]
0x76f725c4 ff7510           PUSH DWORD [EBP+0x10]
0x76f725c7 ff750c           PUSH DWORD [EBP+0xc]
0x76f725ca ff7508           PUSH DWORD [EBP+0x8]
0x76f725cd e8               DB 0xe8
0x76f725ce b9               DB 0xb9

Disassembly(1):
0x38552d 55               PUSH EBP
0x38552e 8bec             MOV EBP, ESP
0x385530 f605e8363a0004   TEST BYTE [0x3a36e8], 0x4
0x385537 56               PUSH ESI
0x385538 8b7510           MOV ESI, [EBP+0x10]
0x38553b 7421             JZ 0x38555e
0x38553d e8365b0100       CALL 0x39b078
0x385542 84c0             TEST AL, AL
0x385544 74               DB 0x74

************************************************************************
Hook mode: Usermode
Hook type: Inline/Trampoline
Process: 2816 (conhost.exe)
Victim module: USER32.dll (0x76f40000 - 0x77009000)
Function: USER32.dll!DefFrameProcW at 0x76f7152b
Hook address: 0x3854e4
Hooking module: <unknown>

Disassembly(0):
0x76f7152b e9b43f4189       JMP 0x3854e4
0x76f71530 6a00             PUSH 0x0
0x76f71532 ff7518           PUSH DWORD [EBP+0x18]
0x76f71535 ff7514           PUSH DWORD [EBP+0x14]
0x76f71538 ff7510           PUSH DWORD [EBP+0x10]
0x76f7153b ff750c           PUSH DWORD [EBP+0xc]
0x76f7153e ff7508           PUSH DWORD [EBP+0x8]
0x76f71541 e8               DB 0xe8
0x76f71542 45               INC EBP

Disassembly(1):
0x3854e4 55               PUSH EBP
0x3854e5 8bec             MOV EBP, ESP
0x3854e7 f605e8363a0004   TEST BYTE [0x3a36e8], 0x4
0x3854ee 56               PUSH ESI
0x3854ef 8b7510           MOV ESI, [EBP+0x10]
0x3854f2 7421             JZ 0x385515
0x3854f4 e87f5b0100       CALL 0x39b078
0x3854f9 84c0             TEST AL, AL
0x3854fb 74               DB 0x74

************************************************************************
Hook mode: Usermode
Hook type: Inline/Trampoline
Process: 2816 (conhost.exe)
Victim module: USER32.dll (0x76f40000 - 0x77009000)
Function: USER32.dll!DefMDIChildProcA at 0x76f725db
Hook address: 0x3855bc
Hooking module: <unknown>

Disassembly(0):
0x76f725db e9dc2f4189       JMP 0x3855bc
0x76f725e0 6a01             PUSH 0x1
0x76f725e2 ff7514           PUSH DWORD [EBP+0x14]
0x76f725e5 ff7510           PUSH DWORD [EBP+0x10]
0x76f725e8 ff750c           PUSH DWORD [EBP+0xc]
0x76f725eb ff7508           PUSH DWORD [EBP+0x8]
0x76f725ee e892f6ffff       CALL 0x76f71c85

Disassembly(1):
0x3855bc 55               PUSH EBP
0x3855bd 8bec             MOV EBP, ESP
0x3855bf f605e8363a0004   TEST BYTE [0x3a36e8], 0x4
0x3855c6 56               PUSH ESI
0x3855c7 8b750c           MOV ESI, [EBP+0xc]
0x3855ca 7421             JZ 0x3855ed
0x3855cc e8a75a0100       CALL 0x39b078
0x3855d1 84c0             TEST AL, AL
0x3855d3 74               DB 0x74

************************************************************************
Hook mode: Usermode
Hook type: Inline/Trampoline
Process: 2816 (conhost.exe)
Victim module: USER32.dll (0x76f40000 - 0x77009000)
Function: USER32.dll!DefMDIChildProcW at 0x76f7150a
Hook address: 0x385576
Hooking module: <unknown>

Disassembly(0):
0x76f7150a e967404189       JMP 0x385576
0x76f7150f 6a00             PUSH 0x0
0x76f71511 ff7514           PUSH DWORD [EBP+0x14]
0x76f71514 ff7510           PUSH DWORD [EBP+0x10]
0x76f71517 ff750c           PUSH DWORD [EBP+0xc]
0x76f7151a ff7508           PUSH DWORD [EBP+0x8]
0x76f7151d e863070000       CALL 0x76f71c85

Disassembly(1):
0x385576 55               PUSH EBP
0x385577 8bec             MOV EBP, ESP
0x385579 f605e8363a0004   TEST BYTE [0x3a36e8], 0x4
0x385580 56               PUSH ESI
0x385581 8b750c           MOV ESI, [EBP+0xc]
0x385584 7421             JZ 0x3855a7
0x385586 e8ed5a0100       CALL 0x39b078
0x38558b 84c0             TEST AL, AL
0x38558d 74               DB 0x74

************************************************************************
Hook mode: Usermode
Hook type: Inline/Trampoline
Process: 2816 (conhost.exe)
Victim module: USER32.dll (0x76f40000 - 0x77009000)
Function: USER32.dll!DefWindowProcA at 0x76f4bb1c
Hook address: 0x385412
Hooking module: <unknown>

Disassembly(0):
0x76f4bb1c e9f1984389       JMP 0x385412
0x76f4bb21 f4               HLT
0x76f4bb22 76e8             JBE 0x76f4bb0c
0x76f4bb24 f8               CLC
0x76f4bb25 0801             OR [ECX], AL
0x76f4bb27 00e8             ADD AL, CH
0x76f4bb29 830901           OR DWORD [ECX], 0x1
0x76f4bb2c 00833dd89afa     ADD [EBX-0x56527c3], AL
0x76f4bb32 7600             JBE 0x76f4bb34

Disassembly(1):
0x385412 55               PUSH EBP
0x385413 8bec             MOV EBP, ESP
0x385415 f605e8363a0004   TEST BYTE [0x3a36e8], 0x4
0x38541c 56               PUSH ESI
0x38541d 8b750c           MOV ESI, [EBP+0xc]
0x385420 7421             JZ 0x385443
0x385422 e8515c0100       CALL 0x39b078
0x385427 84c0             TEST AL, AL
0x385429 74               DB 0x74

************************************************************************
Hook mode: Usermode
Hook type: Inline/Trampoline
Process: 2816 (conhost.exe)
Victim module: USER32.dll (0x76f40000 - 0x77009000)
Function: USER32.dll!DefWindowProcW at 0x76f5507d
Hook address: 0x3853cc
Hooking module: <unknown>

Disassembly(0):
0x76f5507d e94a034389       JMP 0x3853cc
0x76f55082 f5               CMC
0x76f55083 76e8             JBE 0x76f5506d
0x76f55085 97               XCHG EDI, EAX
0x76f55086 7300             JAE 0x76f55088
0x76f55088 00e8             ADD AL, CH
0x76f5508a 22740000         AND DH, [EAX+EAX+0x0]
0x76f5508e 833dd89afa7600   CMP DWORD [0x76fa9ad8], 0x0

Disassembly(1):
0x3853cc 55               PUSH EBP
0x3853cd 8bec             MOV EBP, ESP
0x3853cf f605e8363a0004   TEST BYTE [0x3a36e8], 0x4
0x3853d6 56               PUSH ESI
0x3853d7 8b750c           MOV ESI, [EBP+0xc]
0x3853da 7421             JZ 0x3853fd
0x3853dc e8975c0100       CALL 0x39b078
0x3853e1 84c0             TEST AL, AL
0x3853e3 74               DB 0x74

************************************************************************
Hook mode: Usermode
Hook type: Inline/Trampoline
Process: 2816 (conhost.exe)
Victim module: USER32.dll (0x76f40000 - 0x77009000)
Function: USER32.dll!EndPaint at 0x76f55d42
Hook address: 0x390877
Hooking module: <unknown>

Disassembly(0):
0x76f55d42 e930ab4389       JMP 0x390877
0x76f55d47 ba0003fe7f       MOV EDX, 0x7ffe0300
0x76f55d4c ff12             CALL DWORD [EDX]
0x76f55d4e c20800           RET 0x8
0x76f55d51 90               NOP
0x76f55d52 90               NOP
0x76f55d53 90               NOP
0x76f55d54 90               NOP
0x76f55d55 90               NOP
0x76f55d56 8bff             MOV EDI, EDI
0x76f55d58 55               PUSH EBP
0x76f55d59 8b               DB 0x8b

Disassembly(1):
0x390877 f605e8363a0004   TEST BYTE [0x3a36e8], 0x4
0x39087e 56               PUSH ESI
0x39087f 8b742408         MOV ESI, [ESP+0x8]
0x390883 7423             JZ 0x3908a8
0x390885 e8eea70000       CALL 0x39b078
0x39088a 84c0             TEST AL, AL
0x39088c 741a             JZ 0x3908a8
0x39088e ff               DB 0xff

************************************************************************
Hook mode: Usermode
Hook type: Inline/Trampoline
Process: 2816 (conhost.exe)
Victim module: USER32.dll (0x76f40000 - 0x77009000)
Function: USER32.dll!GetCapture at 0x76f49dc7
Hook address: 0x38d9b3
Hooking module: <unknown>

Disassembly(0):
0x76f49dc7 e9e73b4489       JMP 0x38d9b3
0x76f49dcc 83b8080b000000   CMP DWORD [EAX+0xb08], 0x0
0x76f49dd3 0f8582c80200     JNZ 0x76f7665b
0x76f49dd9 33c0             XOR EAX, EAX
0x76f49ddb c3               RET
0x76f49ddc 3b5d0c           CMP EBX, [EBP+0xc]

Disassembly(1):
0x38d9b3 f605e8363a0004   TEST BYTE [0x3a36e8], 0x4
0x38d9ba 56               PUSH ESI
0x38d9bb 744b             JZ 0x38da08
0x38d9bd e8b6d60000       CALL 0x39b078
0x38d9c2 84c0             TEST AL, AL
0x38d9c4 7442             JZ 0x38da08
0x38d9c6 ff               DB 0xff
0x38d9c7 15               DB 0x15
0x38d9c8 7412             JZ 0x38d9dc
0x38d9ca 38               DB 0x38

************************************************************************
Hook mode: Usermode
Hook type: Inline/Trampoline
Process: 2816 (conhost.exe)
Victim module: USER32.dll (0x76f40000 - 0x77009000)
Function: USER32.dll!GetClipboardData at 0x76f62ba7
Hook address: 0x38fa85
Hooking module: <unknown>

Disassembly(0):
0x76f62ba7 e9d9ce4289       JMP 0x38fa85
0x76f62bac 83ec2c           SUB ESP, 0x2c
0x76f62baf 57               PUSH EDI
0x76f62bb0 8d45d4           LEA EAX, [EBP-0x2c]
0x76f62bb3 50               PUSH EAX
0x76f62bb4 ff7508           PUSH DWORD [EBP+0x8]
0x76f62bb7 e8d7ffffff       CALL 0x76f62b93
0x76f62bbc 33ff             XOR EDI, EDI
0x76f62bbe 89               DB 0x89

Disassembly(1):
0x38fa85 55               PUSH EBP
0x38fa86 8bec             MOV EBP, ESP
0x38fa88 56               PUSH ESI
0x38fa89 8b7508           MOV ESI, [EBP+0x8]
0x38fa8c 57               PUSH EDI
0x38fa8d 56               PUSH ESI
0x38fa8e ff1544143800     CALL DWORD [0x381444]
0x38fa94 8bf8             MOV EDI, EAX
0x38fa96 897d08           MOV [EBP+0x8], EDI
0x38fa99 e8               DB 0xe8
0x38fa9a da               DB 0xda
0x38fa9b b500             MOV CH, 0x0

************************************************************************
Hook mode: Usermode
Hook type: Inline/Trampoline
Process: 2816 (conhost.exe)
Victim module: USER32.dll (0x76f40000 - 0x77009000)
Function: USER32.dll!GetCursorPos at 0x76f4a4b3
Hook address: 0x38d885
Hooking module: <unknown>

Disassembly(0):
0x76f4a4b3 e9cd334489       JMP 0x38d885
0x76f4a4b8 6a69             PUSH 0x69
0x76f4a4ba 6a01             PUSH 0x1
0x76f4a4bc ff7508           PUSH DWORD [EBP+0x8]
0x76f4a4bf e808370000       CALL 0x76f4dbcc
0x76f4a4c4 5d               POP EBP
0x76f4a4c5 c20400           RET 0x4
0x76f4a4c8 90               NOP
0x76f4a4c9 90               NOP
0x76f4a4ca 90               NOP

Disassembly(1):
0x38d885 f605e8363a0004   TEST BYTE [0x3a36e8], 0x4
0x38d88c 7438             JZ 0x38d8c6
0x38d88e e8e5d70000       CALL 0x39b078
0x38d893 84c0             TEST AL, AL
0x38d895 742f             JZ 0x38d8c6
0x38d897 8b442404         MOV EAX, [ESP+0x4]
0x38d89b 85c0             TEST EAX, EAX

************************************************************************
Hook mode: Usermode
Hook type: Inline/Trampoline
Process: 2816 (conhost.exe)
Victim module: USER32.dll (0x76f40000 - 0x77009000)
Function: USER32.dll!GetDC at 0x76f5544c
Hook address: 0x390912
Hooking module: <unknown>

Disassembly(0):
0x76f5544c e9c1b44389       JMP 0x390912
0x76f55451 ba0003fe7f       MOV EDX, 0x7ffe0300
0x76f55456 ff12             CALL DWORD [EDX]
0x76f55458 c20400           RET 0x4
0x76f5545b 90               NOP
0x76f5545c 90               NOP
0x76f5545d 90               NOP
0x76f5545e 90               NOP
0x76f5545f 90               NOP
0x76f55460 8bff             MOV EDI, EDI
0x76f55462 55               PUSH EBP
0x76f55463 8b               DB 0x8b

Disassembly(1):
0x390912 f605e8363a0004   TEST BYTE [0x3a36e8], 0x4
0x390919 56               PUSH ESI
0x39091a 8b742408         MOV ESI, [ESP+0x8]
0x39091e 7426             JZ 0x390946
0x390920 e853a70000       CALL 0x39b078
0x390925 84c0             TEST AL, AL
0x390927 741d             JZ 0x390946
0x390929 ff               DB 0xff

************************************************************************
Hook mode: Usermode
Hook type: Inline/Trampoline
Process: 2816 (conhost.exe)
Victim module: USER32.dll (0x76f40000 - 0x77009000)
Function: USER32.dll!GetDCEx at 0x76f52d57
Hook address: 0x3908b7
Hooking module: <unknown>

Disassembly(0):
0x76f52d57 e95bdb4389       JMP 0x3908b7
0x76f52d5c ba0003fe7f       MOV EDX, 0x7ffe0300
0x76f52d61 ff12             CALL DWORD [EDX]
0x76f52d63 c20c00           RET 0xc
0x76f52d66 85ff             TEST EDI, EDI
0x76f52d68 0f84200c0000     JZ 0x76f5398e
0x76f52d6e 85               DB 0x85

Disassembly(1):
0x3908b7 55               PUSH EBP
0x3908b8 8bec             MOV EBP, ESP
0x3908ba f605e8363a0004   TEST BYTE [0x3a36e8], 0x4
0x3908c1 56               PUSH ESI
0x3908c2 57               PUSH EDI
0x3908c3 8b7d08           MOV EDI, [EBP+0x8]
0x3908c6 7437             JZ 0x3908ff
0x3908c8 e8aba70000       CALL 0x39b078
0x3908cd 84c0             TEST AL, AL

************************************************************************
Hook mode: Usermode
Hook type: Inline/Trampoline
Process: 2816 (conhost.exe)
Victim module: USER32.dll (0x76f40000 - 0x77009000)
Function: USER32.dll!GetMessageA at 0x76f51899
Hook address: 0x38da7a
Hooking module: <unknown>

Disassembly(0):
0x76f51899 e9dcc14389       JMP 0x38da7a
0x76f5189e 8b5510           MOV EDX, [EBP+0x10]
0x76f518a1 8b4d14           MOV ECX, [EBP+0x14]
0x76f518a4 56               PUSH ESI
0x76f518a5 8bf2             MOV ESI, EDX
0x76f518a7 0bf1             OR ESI, ECX
0x76f518a9 b80000feff       MOV EAX, 0xfffe0000
0x76f518ae 85f0             TEST EAX, ESI
0x76f518b0 0f               DB 0xf

Disassembly(1):
0x38da7a 56               PUSH ESI
0x38da7b 8b742408         MOV ESI, [ESP+0x8]
0x38da7f 57               PUSH EDI
0x38da80 ff742418         PUSH DWORD [ESP+0x18]
0x38da84 ff742418         PUSH DWORD [ESP+0x18]
0x38da88 ff742418         PUSH DWORD [ESP+0x18]
0x38da8c 56               PUSH ESI
0x38da8d ff               DB 0xff
0x38da8e 15               DB 0x15
0x38da8f 98               CWDE
0x38da90 1438             ADC AL, 0x38

************************************************************************
Hook mode: Usermode
Hook type: Inline/Trampoline
Process: 2816 (conhost.exe)
Victim module: USER32.dll (0x76f40000 - 0x77009000)
Function: USER32.dll!GetMessagePos at 0x76f76703
Hook address: 0x38d853
Hooking module: <unknown>

Disassembly(0):
0x76f76703 e94b714189       JMP 0x38d853
0x76f76708 fe               DB 0xfe
0x76f76709 ffc3             INC EBX
0x76f7670b 83650c00         AND DWORD [EBP+0xc], 0x0
0x76f7670f e9a1f0fdff       JMP 0x76f557b5
0x76f76714 8b430c           MOV EAX, [EBX+0xc]
0x76f76717 3bc2             CMP EAX, EDX
0x76f76719 0f               DB 0xf
0x76f7671a 85               DB 0x85

Disassembly(1):
0x38d853 f605e8363a0004   TEST BYTE [0x3a36e8], 0x4
0x38d85a 7423             JZ 0x38d87f
0x38d85c e817d80000       CALL 0x39b078
0x38d861 84c0             TEST AL, AL
0x38d863 741a             JZ 0x38d87f
0x38d865 8b0db8233a00     MOV ECX, [0x3a23b8]

************************************************************************
Hook mode: Usermode
Hook type: Inline/Trampoline
Process: 2816 (conhost.exe)
Victim module: USER32.dll (0x76f40000 - 0x77009000)
Function: USER32.dll!GetMessageW at 0x76f5cde8
Hook address: 0x38da52
Hooking module: <unknown>

Disassembly(0):
0x76f5cde8 e9650c4389       JMP 0x38da52
0x76f5cded 8b5510           MOV EDX, [EBP+0x10]
0x76f5cdf0 8b4d14           MOV ECX, [EBP+0x14]
0x76f5cdf3 0bd1             OR EDX, ECX
0x76f5cdf5 b80000feff       MOV EAX, 0xfffe0000
0x76f5cdfa 85d0             TEST EAX, EDX
0x76f5cdfc 0f               DB 0xf
0x76f5cdfd 857801           TEST [EAX+0x1], EDI

Disassembly(1):
0x38da52 56               PUSH ESI
0x38da53 8b742408         MOV ESI, [ESP+0x8]
0x38da57 57               PUSH EDI
0x38da58 ff742418         PUSH DWORD [ESP+0x18]
0x38da5c ff742418         PUSH DWORD [ESP+0x18]
0x38da60 ff742418         PUSH DWORD [ESP+0x18]
0x38da64 56               PUSH ESI
0x38da65 ff               DB 0xff
0x38da66 15               DB 0x15
0x38da67 101438           ADC [EAX+EDI], DL

************************************************************************
Hook mode: Usermode
Hook type: Inline/Trampoline
Process: 2816 (conhost.exe)
Victim module: USER32.dll (0x76f40000 - 0x77009000)
Function: USER32.dll!GetUpdateRect at 0x76f4a575
Hook address: 0x3909d0
Hooking module: <unknown>

Disassembly(0):
0x76f4a575 e956644489       JMP 0x3909d0
0x76f4a57a 8b4d08           MOV ECX, [EBP+0x8]
0x76f4a57d e88e1f0100       CALL 0x76f5c510
0x76f4a582 85c0             TEST EAX, EAX
0x76f4a584 7423             JZ 0x76f4a5a9
0x76f4a586 83786800         CMP DWORD [EAX+0x68], 0x0
0x76f4a58a 7535             JNZ 0x76f4a5c1
0x76f4a58c f6               DB 0xf6

Disassembly(1):
0x3909d0 55               PUSH EBP
0x3909d1 8bec             MOV EBP, ESP
0x3909d3 f605e8363a0004   TEST BYTE [0x3a36e8], 0x4
0x3909da 53               PUSH EBX
0x3909db 8b5d08           MOV EBX, [EBP+0x8]
0x3909de 56               PUSH ESI
0x3909df 746f             JZ 0x390a50
0x3909e1 e892a60000       CALL 0x39b078
0x3909e6 84c0             TEST AL, AL

************************************************************************
Hook mode: Usermode
Hook type: Inline/Trampoline
Process: 2816 (conhost.exe)
Victim module: USER32.dll (0x76f40000 - 0x77009000)
Function: USER32.dll!GetUpdateRgn at 0x76f71c07
Hook address: 0x390a63
Hooking module: <unknown>

Disassembly(0):
0x76f71c07 e957ee4189       JMP 0x390a63
0x76f71c0c 56               PUSH ESI
0x76f71c0d 33f6             XOR ESI, ESI
0x76f71c0f 39750c           CMP [EBP+0xc], ESI
0x76f71c12 0f8415710000     JZ 0x76f78d2d
0x76f71c18 8b4d08           MOV ECX, [EBP+0x8]
0x76f71c1b e8               DB 0xe8
0x76f71c1c f0a8fe           TEST AL, 0xfe

Disassembly(1):
0x390a63 55               PUSH EBP
0x390a64 8bec             MOV EBP, ESP
0x390a66 f605e8363a0004   TEST BYTE [0x3a36e8], 0x4
0x390a6d 53               PUSH EBX
0x390a6e 8b5d08           MOV EBX, [EBP+0x8]
0x390a71 56               PUSH ESI
0x390a72 7470             JZ 0x390ae4
0x390a74 e8ffa50000       CALL 0x39b078
0x390a79 84c0             TEST AL, AL

************************************************************************
Hook mode: Usermode
Hook type: Inline/Trampoline
Process: 2816 (conhost.exe)
Victim module: USER32.dll (0x76f40000 - 0x77009000)
Function: USER32.dll!GetWindowDC at 0x76f54ab7
Hook address: 0x390951
Hooking module: <unknown>

Disassembly(0):
0x76f54ab7 e995be4389       JMP 0x390951
0x76f54abc ba0003fe7f       MOV EDX, 0x7ffe0300
0x76f54ac1 ff12             CALL DWORD [EDX]
0x76f54ac3 c20400           RET 0x4
0x76f54ac6 80faff           CMP DL, 0xff
0x76f54ac9 0f85cc080000     JNZ 0x76f5539b

Disassembly(1):
0x390951 f605e8363a0004   TEST BYTE [0x3a36e8], 0x4
0x390958 56               PUSH ESI
0x390959 8b742408         MOV ESI, [ESP+0x8]
0x39095d 7426             JZ 0x390985
0x39095f e814a70000       CALL 0x39b078
0x390964 84c0             TEST AL, AL
0x390966 741d             JZ 0x390985
0x390968 ff               DB 0xff

************************************************************************
Hook mode: Usermode
Hook type: Inline/Trampoline
Process: 2816 (conhost.exe)
Victim module: USER32.dll (0x76f40000 - 0x77009000)
Function: USER32.dll!OpenInputDesktop at 0x76f45c39
Hook address: 0x38535e
Hooking module: <unknown>

Disassembly(0):
0x76f45c39 e920f74389       JMP 0x38535e
0x76f45c3e ba0003fe7f       MOV EDX, 0x7ffe0300
0x76f45c43 ff12             CALL DWORD [EDX]
0x76f45c45 c20c00           RET 0xc
0x76f45c48 0000             ADD [EAX], AL
0x76f45c4a 895de0           MOV [EBP-0x20], EBX
0x76f45c4d e9               DB 0xe9
0x76f45c4e 1e               PUSH DS
0x76f45c4f 3d               DB 0x3d
0x76f45c50 00               DB 0x0

Disassembly(1):
0x38535e 55               PUSH EBP
0x38535f 8bec             MOV EBP, ESP
0x385361 83ec64           SUB ESP, 0x64
0x385364 f605e8363a0004   TEST BYTE [0x3a36e8], 0x4
0x38536b 742e             JZ 0x38539b
0x38536d e8065d0100       CALL 0x39b078
0x385372 84c0             TEST AL, AL
0x385374 7425             JZ 0x38539b

************************************************************************
Hook mode: Usermode
Hook type: Inline/Trampoline
Process: 2816 (conhost.exe)
Victim module: USER32.dll (0x76f40000 - 0x77009000)
Function: USER32.dll!PeekMessageA at 0x76f519a5
Hook address: 0x38dacd
Hooking module: <unknown>

Disassembly(0):
0x76f519a5 e923c14389       JMP 0x38dacd
0x76f519aa 53               PUSH EBX
0x76f519ab 56               PUSH ESI
0x76f519ac 648b3518000000   MOV ESI, [FS:0x18]
0x76f519b3 33c9             XOR ECX, ECX
0x76f519b5 81c6cc060000     ADD ESI, 0x6cc
0x76f519bb 57               PUSH EDI
0x76f519bc 39               DB 0x39

Disassembly(1):
0x38dacd 55               PUSH EBP
0x38dace 8bec             MOV EBP, ESP
0x38dad0 56               PUSH ESI
0x38dad1 8b7508           MOV ESI, [EBP+0x8]
0x38dad4 57               PUSH EDI
0x38dad5 ff7518           PUSH DWORD [EBP+0x18]
0x38dad8 ff7514           PUSH DWORD [EBP+0x14]
0x38dadb ff7510           PUSH DWORD [EBP+0x10]
0x38dade ff750c           PUSH DWORD [EBP+0xc]
0x38dae1 56               PUSH ESI
0x38dae2 ff               DB 0xff
0x38dae3 15               DB 0x15
0x38dae4 54               PUSH ESP

************************************************************************
Hook mode: Usermode
Hook type: Inline/Trampoline
Process: 2816 (conhost.exe)
Victim module: USER32.dll (0x76f40000 - 0x77009000)
Function: USER32.dll!PeekMessageW at 0x76f5634a
Hook address: 0x38daa2
Hooking module: <unknown>

Disassembly(0):
0x76f5634a e953774389       JMP 0x38daa2
0x76f5634f 53               PUSH EBX
0x76f56350 56               PUSH ESI
0x76f56351 648b3518000000   MOV ESI, [FS:0x18]
0x76f56358 33c9             XOR ECX, ECX
0x76f5635a 81c6cc060000     ADD ESI, 0x6cc
0x76f56360 57               PUSH EDI
0x76f56361 39               DB 0x39

Disassembly(1):
0x38daa2 55               PUSH EBP
0x38daa3 8bec             MOV EBP, ESP
0x38daa5 56               PUSH ESI
0x38daa6 8b7508           MOV ESI, [EBP+0x8]
0x38daa9 57               PUSH EDI
0x38daaa ff7518           PUSH DWORD [EBP+0x18]
0x38daad ff7514           PUSH DWORD [EBP+0x14]
0x38dab0 ff7510           PUSH DWORD [EBP+0x10]
0x38dab3 ff750c           PUSH DWORD [EBP+0xc]
0x38dab6 56               PUSH ESI
0x38dab7 ff               DB 0xff
0x38dab8 15               DB 0x15
0x38dab9 50               PUSH EAX

************************************************************************
Hook mode: Usermode
Hook type: Inline/Trampoline
Process: 2816 (conhost.exe)
Victim module: USER32.dll (0x76f40000 - 0x77009000)
Function: USER32.dll!RegisterClassA at 0x76f4bc6a
Hook address: 0x38571d
Hooking module: <unknown>

Disassembly(0):
0x76f4bc6a e9ae9a4389       JMP 0x38571d
0x76f4bc6f 83ec30           SUB ESP, 0x30
0x76f4bc72 8b4508           MOV EAX, [EBP+0x8]
0x76f4bc75 56               PUSH ESI
0x76f4bc76 57               PUSH EDI
0x76f4bc77 6a09             PUSH 0x9
0x76f4bc79 59               POP ECX
0x76f4bc7a 8d7004           LEA ESI, [EAX+0x4]
0x76f4bc7d 8b00             MOV EAX, [EAX]
0x76f4bc7f 6a01             PUSH 0x1
0x76f4bc81 8d               DB 0x8d

Disassembly(1):
0x38571d 55               PUSH EBP
0x38571e 8bec             MOV EBP, ESP
0x385720 83ec28           SUB ESP, 0x28
0x385723 f605e8363a0004   TEST BYTE [0x3a36e8], 0x4
0x38572a 56               PUSH ESI
0x38572b 8b7508           MOV ESI, [EBP+0x8]
0x38572e 742e             JZ 0x38575e
0x385730 e843590100       CALL 0x39b078

************************************************************************
Hook mode: Usermode
Hook type: Inline/Trampoline
Process: 2816 (conhost.exe)
Victim module: USER32.dll (0x76f40000 - 0x77009000)
Function: USER32.dll!RegisterClassExA at 0x76f46293
Hook address: 0x3857bc
Hooking module: <unknown>

Disassembly(0):
0x76f46293 e924f54389       JMP 0x3857bc
0x76f46298 8b4508           MOV EAX, [EBP+0x8]
0x76f4629b 833830           CMP DWORD [EAX], 0x30
0x76f4629e 0f853e0a0400     JNZ 0x76f86ce2
0x76f462a4 6a01             PUSH 0x1
0x76f462a6 6880000000       PUSH DWORD 0x80

Disassembly(1):
0x3857bc 55               PUSH EBP
0x3857bd 8bec             MOV EBP, ESP
0x3857bf 83ec30           SUB ESP, 0x30
0x3857c2 f605e8363a0004   TEST BYTE [0x3a36e8], 0x4
0x3857c9 56               PUSH ESI
0x3857ca 8b7508           MOV ESI, [EBP+0x8]
0x3857cd 7433             JZ 0x385802
0x3857cf e8a4580100       CALL 0x39b078

************************************************************************
Hook mode: Usermode
Hook type: Inline/Trampoline
Process: 2816 (conhost.exe)
Victim module: USER32.dll (0x76f40000 - 0x77009000)
Function: USER32.dll!RegisterClassExW at 0x76f50162
Hook address: 0x38576a
Hooking module: <unknown>

Disassembly(0):
0x76f50162 e903564389       JMP 0x38576a
0x76f50167 8b4508           MOV EAX, [EBP+0x8]
0x76f5016a 833830           CMP DWORD [EAX], 0x30
0x76f5016d 0f85899e0200     JNZ 0x76f79ffc
0x76f50173 6a01             PUSH 0x1
0x76f50175 6880000000       PUSH DWORD 0x80

Disassembly(1):
0x38576a 55               PUSH EBP
0x38576b 8bec             MOV EBP, ESP
0x38576d 83ec30           SUB ESP, 0x30
0x385770 f605e8363a0004   TEST BYTE [0x3a36e8], 0x4
0x385777 56               PUSH ESI
0x385778 8b7508           MOV ESI, [EBP+0x8]
0x38577b 7433             JZ 0x3857b0
0x38577d e8f6580100       CALL 0x39b078

************************************************************************
Hook mode: Usermode
Hook type: Inline/Trampoline
Process: 2816 (conhost.exe)
Victim module: USER32.dll (0x76f40000 - 0x77009000)
Function: USER32.dll!RegisterClassW at 0x76f4ed4a
Hook address: 0x3856d0
Hooking module: <unknown>

Disassembly(0):
0x76f4ed4a e981694389       JMP 0x3856d0
0x76f4ed4f 83ec30           SUB ESP, 0x30
0x76f4ed52 8b4508           MOV EAX, [EBP+0x8]
0x76f4ed55 56               PUSH ESI
0x76f4ed56 57               PUSH EDI
0x76f4ed57 6a09             PUSH 0x9
0x76f4ed59 59               POP ECX
0x76f4ed5a 8d7004           LEA ESI, [EAX+0x4]
0x76f4ed5d 8b00             MOV EAX, [EAX]
0x76f4ed5f 6a01             PUSH 0x1
0x76f4ed61 8d               DB 0x8d

Disassembly(1):
0x3856d0 55               PUSH EBP
0x3856d1 8bec             MOV EBP, ESP
0x3856d3 83ec28           SUB ESP, 0x28
0x3856d6 f605e8363a0004   TEST BYTE [0x3a36e8], 0x4
0x3856dd 56               PUSH ESI
0x3856de 8b7508           MOV ESI, [EBP+0x8]
0x3856e1 742e             JZ 0x385711
0x3856e3 e890590100       CALL 0x39b078

************************************************************************
Hook mode: Usermode
Hook type: Inline/Trampoline
Process: 2816 (conhost.exe)
Victim module: USER32.dll (0x76f40000 - 0x77009000)
Function: USER32.dll!ReleaseCapture at 0x76f769f2
Hook address: 0x38d963
Hooking module: <unknown>

Disassembly(0):
0x76f769f2 e96c6f4189       JMP 0x38d963
0x76f769f7 fe               DB 0xfe
0x76f769f8 ffc3             INC EBX
0x76f769fa 90               NOP
0x76f769fb 90               NOP
0x76f769fc 90               NOP
0x76f769fd 90               NOP
0x76f769fe 90               NOP
0x76f769ff 8bff             MOV EDI, EDI
0x76f76a01 55               PUSH EBP
0x76f76a02 8bec             MOV EBP, ESP
0x76f76a04 6a30             PUSH 0x30
0x76f76a06 ff7508           PUSH DWORD [EBP+0x8]
0x76f76a09 e8               DB 0xe8

Disassembly(1):
0x38d963 f605e8363a0004   TEST BYTE [0x3a36e8], 0x4
0x38d96a 7441             JZ 0x38d9ad
0x38d96c e807d70000       CALL 0x39b078
0x38d971 84c0             TEST AL, AL
0x38d973 7438             JZ 0x38d9ad
0x38d975 ff1574123800     CALL DWORD [0x381274]

************************************************************************
Hook mode: Usermode
Hook type: Inline/Trampoline
Process: 2816 (conhost.exe)
Victim module: USER32.dll (0x76f40000 - 0x77009000)
Function: USER32.dll!ReleaseDC at 0x76f55421
Hook address: 0x390990
Hooking module: <unknown>

Disassembly(0):
0x76f55421 e96ab54389       JMP 0x390990
0x76f55426 837d0c00         CMP DWORD [EBP+0xc], 0x0
0x76f5542a 0f846b380200     JZ 0x76f78c9b
0x76f55430 ff750c           PUSH DWORD [EBP+0xc]
0x76f55433 ff152013f476     CALL DWORD [0x76f41320]

Disassembly(1):
0x390990 f605e8363a0004   TEST BYTE [0x3a36e8], 0x4
0x390997 56               PUSH ESI
0x390998 8b74240c         MOV ESI, [ESP+0xc]
0x39099c 7423             JZ 0x3909c1
0x39099e e8d5a60000       CALL 0x39b078
0x3909a3 84c0             TEST AL, AL
0x3909a5 741a             JZ 0x3909c1
0x3909a7 ff               DB 0xff

************************************************************************
Hook mode: Usermode
Hook type: Inline/Trampoline
Process: 2816 (conhost.exe)
Victim module: USER32.dll (0x76f40000 - 0x77009000)
Function: USER32.dll!SetCapture at 0x76f76932
Hook address: 0x38d909
Hooking module: <unknown>

Disassembly(0):
0x76f76932 e9d26f4189       JMP 0x38d909
0x76f76937 ba0003fe7f       MOV EDX, 0x7ffe0300
0x76f7693c ff12             CALL DWORD [EDX]
0x76f7693e c20400           RET 0x4
0x76f76941 90               NOP
0x76f76942 90               NOP
0x76f76943 90               NOP
0x76f76944 90               NOP
0x76f76945 90               NOP
0x76f76946 b8               DB 0xb8
0x76f76947 b211             MOV DL, 0x11
0x76f76949 00               DB 0x0

Disassembly(1):
0x38d909 f605e8363a0004   TEST BYTE [0x3a36e8], 0x4
0x38d910 53               PUSH EBX
0x38d911 56               PUSH ESI
0x38d912 57               PUSH EDI
0x38d913 7445             JZ 0x38d95a
0x38d915 e85ed70000       CALL 0x39b078
0x38d91a 84c0             TEST AL, AL
0x38d91c 743c             JZ 0x38d95a
0x38d91e 8b               DB 0x8b
0x38d91f 5c               POP ESP
0x38d920 24               DB 0x24

************************************************************************
Hook mode: Usermode
Hook type: Inline/Trampoline
Process: 2816 (conhost.exe)
Victim module: USER32.dll (0x76f40000 - 0x77009000)
Function: USER32.dll!SetCursorPos at 0x76f8c1b0
Hook address: 0x38d8cc
Hooking module: <unknown>

Disassembly(0):
0x76f8c1b0 e917174089       JMP 0x38d8cc
0x76f8c1b5 6a74             PUSH 0x74
0x76f8c1b7 ff750c           PUSH DWORD [EBP+0xc]
0x76f8c1ba ff7508           PUSH DWORD [EBP+0x8]
0x76f8c1bd e80a1afcff       CALL 0x76f4dbcc
0x76f8c1c2 5d               POP EBP
0x76f8c1c3 c20800           RET 0x8
0x76f8c1c6 90               NOP
0x76f8c1c7 90               NOP

Disassembly(1):
0x38d8cc f605e8363a0004   TEST BYTE [0x3a36e8], 0x4
0x38d8d3 742e             JZ 0x38d903
0x38d8d5 e89ed70000       CALL 0x39b078
0x38d8da 84c0             TEST AL, AL
0x38d8dc 7425             JZ 0x38d903
0x38d8de a1b8233a00       MOV EAX, [0x3a23b8]
0x38d8e3 8b               DB 0x8b

************************************************************************
Hook mode: Usermode
Hook type: Inline/Trampoline
Process: 2816 (conhost.exe)
Victim module: USER32.dll (0x76f40000 - 0x77009000)
Function: USER32.dll!SwitchDesktop at 0x76f4476b
Hook address: 0x3853ae
Hooking module: <unknown>

Disassembly(0):
0x76f4476b e93e0c4489       JMP 0x3853ae
0x76f44770 6a00             PUSH 0x0
0x76f44772 ff7508           PUSH DWORD [EBP+0x8]
0x76f44775 e8a2020000       CALL 0x76f44a1c
0x76f4477a 5d               POP EBP
0x76f4477b c20400           RET 0x4
0x76f4477e 33c0             XOR EAX, EAX
0x76f44780 e9               DB 0xe9
0x76f44781 3a               DB 0x3a
0x76f44782 73               DB 0x73

Disassembly(1):
0x3853ae f605e8363a0004   TEST BYTE [0x3a36e8], 0x4
0x3853b5 740f             JZ 0x3853c6
0x3853b7 e8bc5c0100       CALL 0x39b078
0x3853bc 84c0             TEST AL, AL
0x3853be 7406             JZ 0x3853c6
0x3853c0 33c0             XOR EAX, EAX
0x3853c2 40               INC EAX
0x3853c3 c20400           RET 0x4

************************************************************************
Hook mode: Usermode
Hook type: Inline/Trampoline
Process: 2816 (conhost.exe)
Victim module: USER32.dll (0x76f40000 - 0x77009000)
Function: USER32.dll!TranslateMessage at 0x76f564c7
Hook address: 0x38f91f
Hooking module: <unknown>

Disassembly(0):
0x76f564c7 e953944389       JMP 0x38f91f
0x76f564cc 56               PUSH ESI
0x76f564cd 8b7508           MOV ESI, [EBP+0x8]
0x76f564d0 b8e5000000       MOV EAX, 0xe5
0x76f564d5 66394608         CMP [ESI+0x8], AX
0x76f564d9 0f84e4dc0200     JZ 0x76f841c3

Disassembly(1):
0x38f91f 55               PUSH EBP
0x38f920 8bec             MOV EBP, ESP
0x38f922 83e4f8           AND ESP, -0x8
0x38f925 81ec74030000     SUB ESP, 0x374
0x38f92b 53               PUSH EBX
0x38f92c 8b5d08           MOV EBX, [EBP+0x8]
0x38f92f 56               PUSH ESI
0x38f930 57               PUSH EDI
0x38f931 85db             TEST EBX, EBX
0x38f933 0f               DB 0xf
0x38f934 843c01           TEST [ECX+EAX], BH

************************************************************************
Hook mode: Usermode
Hook type: Inline/Trampoline
Process: 2816 (conhost.exe)
Victim module: WS2_32.dll (0x75ad0000 - 0x75b05000)
Function: WS2_32.dll!WSASend at 0x75ad4406
Hook address: 0x38ff16
Hooking module: <unknown>

Disassembly(0):
0x75ad4406 e90bbb8b8a       JMP 0x38ff16
0x75ad440b 51               PUSH ECX
0x75ad440c 51               PUSH ECX
0x75ad440d 813d4870af75292ead75 CMP DWORD [0x75af7048], 0x75ad2e29
0x75ad4417 56               PUSH ESI
0x75ad4418 0f85ca010000     JNZ 0x75ad45e8

Disassembly(1):
0x38ff16 55               PUSH EBP
0x38ff17 8bec             MOV EBP, ESP
0x38ff19 83e4f8           AND ESP, -0x8
0x38ff1c 56               PUSH ESI
0x38ff1d 57               PUSH EDI
0x38ff1e e855b10000       CALL 0x39b078
0x38ff23 8b750c           MOV ESI, [EBP+0xc]
0x38ff26 84c0             TEST AL, AL
0x38ff28 7419             JZ 0x38ff43
0x38ff2a 837d1000         CMP DWORD [EBP+0x10], 0x0

************************************************************************
Hook mode: Usermode
Hook type: Inline/Trampoline
Process: 2816 (conhost.exe)
Victim module: WS2_32.dll (0x75ad0000 - 0x75b05000)
Function: WS2_32.dll!closesocket at 0x75ad3918
Hook address: 0x38febd
Hooking module: <unknown>

Disassembly(0):
0x75ad3918 e9a0c58b8a       JMP 0x38febd
0x75ad391d 51               PUSH ECX
0x75ad391e 53               PUSH EBX
0x75ad391f 56               PUSH ESI
0x75ad3920 be292ead75       MOV ESI, 0x75ad2e29
0x75ad3925 33db             XOR EBX, EBX
0x75ad3927 57               PUSH EDI
0x75ad3928 39354870af75     CMP [0x75af7048], ESI
0x75ad392e 0f               DB 0xf
0x75ad392f 85               DB 0x85

Disassembly(1):
0x38febd e8b6b10000       CALL 0x39b078
0x38fec2 84c0             TEST AL, AL
0x38fec4 7429             JZ 0x38feef
0x38fec6 56               PUSH ESI
0x38fec7 be68273a00       MOV ESI, 0x3a2768
0x38fecc 56               PUSH ESI
0x38fecd ff154c123800     CALL DWORD [0x38124c]
0x38fed3 ff               DB 0xff
0x38fed4 74               DB 0x74

************************************************************************
Hook mode: Usermode
Hook type: Inline/Trampoline
Process: 2816 (conhost.exe)
Victim module: WS2_32.dll (0x75ad0000 - 0x75b05000)
Function: WS2_32.dll!send at 0x75ad6f01
Hook address: 0x38fef5
Hooking module: <unknown>

Disassembly(0):
0x75ad6f01 e9ef8f8b8a       JMP 0x38fef5
0x75ad6f06 83ec10           SUB ESP, 0x10
0x75ad6f09 56               PUSH ESI
0x75ad6f0a 57               PUSH EDI
0x75ad6f0b 33ff             XOR EDI, EDI
0x75ad6f0d 813d4870af75292ead75 CMP DWORD [0x75af7048], 0x75ad2e29
0x75ad6f17 757b             JNZ 0x75ad6f94

Disassembly(1):
0x38fef5 55               PUSH EBP
0x38fef6 8bec             MOV EBP, ESP
0x38fef8 e87bb10000       CALL 0x39b078
0x38fefd 84c0             TEST AL, AL
0x38feff 740e             JZ 0x38ff0f
0x38ff01 ff7508           PUSH DWORD [EBP+0x8]
0x38ff04 8b4510           MOV EAX, [EBP+0x10]
0x38ff07 8b4d0c           MOV ECX, [EBP+0xc]
0x38ff0a e8               DB 0xe8
0x38ff0b 35               DB 0x35
0x38ff0c fd               STD

************************************************************************
Hook mode: Usermode
Hook type: Inline/Trampoline
Process: 2816 (conhost.exe)
Victim module: CRYPT32.dll (0x754d0000 - 0x755ed000)
Function: CRYPT32.dll!PFXImportCertStore at 0x75560ddc
Hook address: 0x39c8ed
Hooking module: <unknown>

Disassembly(0):
0x75560ddc e90cbbe38a       JMP 0x39c8ed
0x75560de1 81ec84000000     SUB ESP, 0x84
0x75560de7 a108535875       MOV EAX, [0x75585308]
0x75560dec 33c5             XOR EAX, EBP
0x75560dee 8945fc           MOV [EBP-0x4], EAX
0x75560df1 53               PUSH EBX
0x75560df2 8b               DB 0x8b
0x75560df3 5d               POP EBP

Disassembly(1):
0x39c8ed 55               PUSH EBP
0x39c8ee 8bec             MOV EBP, ESP
0x39c8f0 83e4f8           AND ESP, -0x8
0x39c8f3 81ecfc020000     SUB ESP, 0x2fc
0x39c8f9 53               PUSH EBX
0x39c8fa 8b5d08           MOV EBX, [EBP+0x8]
0x39c8fd 56               PUSH ESI
0x39c8fe 57               PUSH EDI
0x39c8ff ff7510           PUSH DWORD [EBP+0x10]
0x39c902 ff750c           PUSH DWORD [EBP+0xc]

************************************************************************
Hook mode: Usermode
Hook type: Inline/Trampoline
Process: 2816 (conhost.exe)
Victim module: WININET.dll (0x760b0000 - 0x761a5000)
Function: WININET.dll!HttpQueryInfoA at 0x760ca33e
Hook address: 0x39a4ad
Hooking module: <unknown>

Disassembly(0):
0x760ca33e e96a012d8a       JMP 0x39a4ad
0x760ca343 83ec6c           SUB ESP, 0x6c
0x760ca346 a1a0931676       MOV EAX, [0x761693a0]
0x760ca34b 33c5             XOR EAX, EBP
0x760ca34d 8945fc           MOV [EBP-0x4], EAX
0x760ca350 8b4510           MOV EAX, [EBP+0x10]
0x760ca353 8945d8           MOV [EBP-0x28], EAX

Disassembly(1):
0x39a4ad 55               PUSH EBP
0x39a4ae 8bec             MOV EBP, ESP
0x39a4b0 e8c30b0000       CALL 0x39b078
0x39a4b5 84c0             TEST AL, AL
0x39a4b7 7441             JZ 0x39a4fa
0x39a4b9 56               PUSH ESI
0x39a4ba 57               PUSH EDI
0x39a4bb bfb0353a00       MOV EDI, 0x3a35b0
0x39a4c0 57               PUSH EDI
0x39a4c1 ff               DB 0xff
0x39a4c2 15               DB 0x15
0x39a4c3 4c               DEC ESP
0x39a4c4 12               DB 0x12

************************************************************************
Hook mode: Usermode
Hook type: Inline/Trampoline
Process: 2816 (conhost.exe)
Victim module: WININET.dll (0x760b0000 - 0x761a5000)
Function: WININET.dll!HttpSendRequestA at 0x761418f8
Hook address: 0x39a229
Hooking module: <unknown>

Disassembly(0):
0x761418f8 e92c89258a       JMP 0x39a229
0x761418fd 83ec38           SUB ESP, 0x38
0x76141900 56               PUSH ESI
0x76141901 6a38             PUSH 0x38
0x76141903 8d45c8           LEA EAX, [EBP-0x38]
0x76141906 6a00             PUSH 0x0
0x76141908 50               PUSH EAX
0x76141909 e80d00f7ff       CALL 0x760b191b
0x7614190e 83               DB 0x83
0x7614190f c4               DB 0xc4

Disassembly(1):
0x39a229 55               PUSH EBP
0x39a22a 8bec             MOV EBP, ESP
0x39a22c e8470e0000       CALL 0x39b078
0x39a231 84c0             TEST AL, AL
0x39a233 743d             JZ 0x39a272
0x39a235 837d1000         CMP DWORD [EBP+0x10], 0x0
0x39a239 7422             JZ 0x39a25d
0x39a23b 837d0c00         CMP DWORD [EBP+0xc], 0x0
0x39a23f 741c             JZ 0x39a25d

************************************************************************
Hook mode: Usermode
Hook type: Inline/Trampoline
Process: 2816 (conhost.exe)
Victim module: WININET.dll (0x760b0000 - 0x761a5000)
Function: WININET.dll!HttpSendRequestExA at 0x76141812
Hook address: 0x39a319
Hooking module: <unknown>

Disassembly(0):
0x76141812 e9028b258a       JMP 0x39a319
0x76141817 83ec40           SUB ESP, 0x40
0x7614181a 53               PUSH EBX
0x7614181b 56               PUSH ESI
0x7614181c 57               PUSH EDI
0x7614181d 6a38             PUSH 0x38
0x7614181f 33f6             XOR ESI, ESI
0x76141821 8d45c0           LEA EAX, [EBP-0x40]
0x76141824 56               PUSH ESI
0x76141825 50               PUSH EAX
0x76141826 33ff             XOR EDI, EDI
0x76141828 33db             XOR EBX, EBX

Disassembly(1):
0x39a319 55               PUSH EBP
0x39a31a 8bec             MOV EBP, ESP
0x39a31c 83e4f8           AND ESP, -0x8
0x39a31f 83ec2c           SUB ESP, 0x2c
0x39a322 56               PUSH ESI
0x39a323 e8500d0000       CALL 0x39b078
0x39a328 84c0             TEST AL, AL
0x39a32a 746c             JZ 0x39a398
0x39a32c 33f6             XOR ESI, ESI
0x39a32e 6a28             PUSH 0x28
0x39a330 8d               DB 0x8d

************************************************************************
Hook mode: Usermode
Hook type: Inline/Trampoline
Process: 2816 (conhost.exe)
Victim module: WININET.dll (0x760b0000 - 0x761a5000)
Function: WININET.dll!HttpSendRequestExW at 0x760e4a3d
Hook address: 0x39a27d
Hooking module: <unknown>

Disassembly(0):
0x760e4a3d e93b582b8a       JMP 0x39a27d
0x760e4a42 83ec4c           SUB ESP, 0x4c
0x760e4a45 53               PUSH EBX
0x760e4a46 57               PUSH EDI
0x760e4a47 33ff             XOR EDI, EDI
0x760e4a49 6a38             PUSH 0x38
0x760e4a4b 8d45b4           LEA EAX, [EBP-0x4c]
0x760e4a4e 57               PUSH EDI
0x760e4a4f 50               PUSH EAX
0x760e4a50 897dfc           MOV [EBP-0x4], EDI
0x760e4a53 89               DB 0x89
0x760e4a54 7d               DB 0x7d

Disassembly(1):
0x39a27d 55               PUSH EBP
0x39a27e 8bec             MOV EBP, ESP
0x39a280 83e4f8           AND ESP, -0x8
0x39a283 83ec2c           SUB ESP, 0x2c
0x39a286 56               PUSH ESI
0x39a287 e8ec0d0000       CALL 0x39b078
0x39a28c 84c0             TEST AL, AL
0x39a28e 746c             JZ 0x39a2fc
0x39a290 33f6             XOR ESI, ESI
0x39a292 6a28             PUSH 0x28
0x39a294 8d               DB 0x8d

************************************************************************
Hook mode: Usermode
Hook type: Inline/Trampoline
Process: 2816 (conhost.exe)
Victim module: WININET.dll (0x760b0000 - 0x761a5000)
Function: WININET.dll!HttpSendRequestW at 0x760dba12
Hook address: 0x39a1d5
Hooking module: <unknown>

Disassembly(0):
0x760dba12 e9bee72b8a       JMP 0x39a1d5
0x760dba17 83ec40           SUB ESP, 0x40
0x760dba1a 53               PUSH EBX
0x760dba1b 56               PUSH ESI
0x760dba1c 57               PUSH EDI
0x760dba1d 33f6             XOR ESI, ESI
0x760dba1f 6a38             PUSH 0x38
0x760dba21 8d45c0           LEA EAX, [EBP-0x40]
0x760dba24 56               PUSH ESI
0x760dba25 50               PUSH EAX
0x760dba26 33ff             XOR EDI, EDI
0x760dba28 33db             XOR EBX, EBX

Disassembly(1):
0x39a1d5 55               PUSH EBP
0x39a1d6 8bec             MOV EBP, ESP
0x39a1d8 e89b0e0000       CALL 0x39b078
0x39a1dd 84c0             TEST AL, AL
0x39a1df 743d             JZ 0x39a21e
0x39a1e1 837d1000         CMP DWORD [EBP+0x10], 0x0
0x39a1e5 7422             JZ 0x39a209
0x39a1e7 837d0c00         CMP DWORD [EBP+0xc], 0x0
0x39a1eb 741c             JZ 0x39a209

************************************************************************
Hook mode: Usermode
Hook type: Inline/Trampoline
Process: 2816 (conhost.exe)
Victim module: WININET.dll (0x760b0000 - 0x761a5000)
Function: WININET.dll!InternetCloseHandle at 0x760cab49
Hook address: 0x39a3b5
Hooking module: <unknown>

Disassembly(0):
0x760cab49 e967f82c8a       JMP 0x39a3b5
0x760cab4e 83ec38           SUB ESP, 0x38
0x760cab51 56               PUSH ESI
0x760cab52 6a38             PUSH 0x38
0x760cab54 8d45c8           LEA EAX, [EBP-0x38]
0x760cab57 6a00             PUSH 0x0
0x760cab59 50               PUSH EAX
0x760cab5a e8bc6dfeff       CALL 0x760b191b
0x760cab5f 83               DB 0x83
0x760cab60 c4               DB 0xc4

Disassembly(1):
0x39a3b5 53               PUSH EBX
0x39a3b6 56               PUSH ESI
0x39a3b7 8b74240c         MOV ESI, [ESP+0xc]
0x39a3bb 56               PUSH ESI
0x39a3bc ff1500153800     CALL DWORD [0x381500]
0x39a3c2 8bd8             MOV EBX, EAX
0x39a3c4 e8af0c0000       CALL 0x39b078
0x39a3c9 84c0             TEST AL, AL
0x39a3cb 7424             JZ 0x39a3f1

************************************************************************
Hook mode: Usermode
Hook type: Inline/Trampoline
Process: 2816 (conhost.exe)
Victim module: WININET.dll (0x760b0000 - 0x761a5000)
Function: WININET.dll!InternetQueryDataAvailable at 0x760d5e5d
Hook address: 0x39a481
Hooking module: <unknown>

Disassembly(0):
0x760d5e5d e91f462c8a       JMP 0x39a481
0x760d5e62 83ec64           SUB ESP, 0x64
0x760d5e65 a1a0931676       MOV EAX, [0x761693a0]
0x760d5e6a 33c5             XOR EAX, EBP
0x760d5e6c 8945fc           MOV [EBP-0x4], EAX
0x760d5e6f 8b450c           MOV EAX, [EBP+0xc]
0x760d5e72 53               PUSH EBX
0x760d5e73 8b               DB 0x8b
0x760d5e74 5d               POP EBP

Disassembly(1):
0x39a481 55               PUSH EBP
0x39a482 8bec             MOV EBP, ESP
0x39a484 e8ef0b0000       CALL 0x39b078
0x39a489 84c0             TEST AL, AL
0x39a48b 7415             JZ 0x39a4a2
0x39a48d ff750c           PUSH DWORD [EBP+0xc]
0x39a490 8d4508           LEA EAX, [EBP+0x8]
0x39a493 6a00             PUSH 0x0
0x39a495 6a00             PUSH 0x0
0x39a497 50               PUSH EAX
0x39a498 e8               DB 0xe8

************************************************************************
Hook mode: Usermode
Hook type: Inline/Trampoline
Process: 2816 (conhost.exe)
Victim module: WININET.dll (0x760b0000 - 0x761a5000)
Function: WININET.dll!InternetReadFile at 0x760cb406
Hook address: 0x39a3f8
Hooking module: <unknown>

Disassembly(0):
0x760cb406 e9edef2c8a       JMP 0x39a3f8
0x760cb40b 83ec38           SUB ESP, 0x38
0x760cb40e 56               PUSH ESI
0x760cb40f 6a38             PUSH 0x38
0x760cb411 8d45c8           LEA EAX, [EBP-0x38]
0x760cb414 6a00             PUSH 0x0
0x760cb416 50               PUSH EAX
0x760cb417 e8ff64feff       CALL 0x760b191b
0x760cb41c 83               DB 0x83
0x760cb41d c4               DB 0xc4

Disassembly(1):
0x39a3f8 55               PUSH EBP
0x39a3f9 8bec             MOV EBP, ESP
0x39a3fb e8780c0000       CALL 0x39b078
0x39a400 84c0             TEST AL, AL
0x39a402 7428             JZ 0x39a42c
0x39a404 33c0             XOR EAX, EAX
0x39a406 39450c           CMP [EBP+0xc], EAX
0x39a409 7421             JZ 0x39a42c
0x39a40b 394510           CMP [EBP+0x10], EAX
0x39a40e 761c             JBE 0x39a42c

************************************************************************
Hook mode: Usermode
Hook type: Inline/Trampoline
Process: 2816 (conhost.exe)
Victim module: WININET.dll (0x760b0000 - 0x761a5000)
Function: WININET.dll!InternetReadFileExA at 0x760fae46
Hook address: 0x39a437
Hooking module: <unknown>

Disassembly(0):
0x760fae46 e9ecf5298a       JMP 0x39a437
0x760fae4b 83ec78           SUB ESP, 0x78
0x760fae4e a1a0931676       MOV EAX, [0x761693a0]
0x760fae53 33c5             XOR EAX, EBP
0x760fae55 8945fc           MOV [EBP-0x4], EAX
0x760fae58 8b4508           MOV EAX, [EBP+0x8]
0x760fae5b 53               PUSH EBX
0x760fae5c 56               PUSH ESI
0x760fae5d 8b               DB 0x8b

Disassembly(1):
0x39a437 55               PUSH EBP
0x39a438 8bec             MOV EBP, ESP
0x39a43a 56               PUSH ESI
0x39a43b e8380c0000       CALL 0x39b078
0x39a440 8b750c           MOV ESI, [EBP+0xc]
0x39a443 84c0             TEST AL, AL
0x39a445 7425             JZ 0x39a46c
0x39a447 85f6             TEST ESI, ESI
0x39a449 7421             JZ 0x39a46c
0x39a44b 8b5614           MOV EDX, [ESI+0x14]
0x39a44e 85               DB 0x85

************************************************************************
Hook mode: Kernelmode
Hook type: Unknown Code Page Call
Victim module: ntoskrnl.exe (0x82a06000 - 0x82e18000)
Function: <unknown>
Hook address: 0x84135000
Hooking module: <unknown>

Disassembly(0):
0x82ad6adb ff15700ab782     CALL DWORD [0x82b70a70]
0x82ad6ae1 5b               POP EBX
0x82ad6ae2 5e               POP ESI
0x82ad6ae3 5f               POP EDI
0x82ad6ae4 c21800           RET 0x18
0x82ad6ae7 90               NOP
0x82ad6ae8 55               PUSH EBP
0x82ad6ae9 53               PUSH EBX
0x82ad6aea 56               PUSH ESI
0x82ad6aeb 57               PUSH EDI
0x82ad6aec 83ec0c           SUB ESP, 0xc
0x82ad6aef 8bcc             MOV ECX, ESP
0x82ad6af1 81               DB 0x81
0x82ad6af2 ec               IN AL, DX

Disassembly(1):
0x84135000 0000             ADD [EAX], AL
0x84135002 0000             ADD [EAX], AL
0x84135004 0000             ADD [EAX], AL
0x84135006 0000             ADD [EAX], AL
0x84135008 0000             ADD [EAX], AL
0x8413500a 0000             ADD [EAX], AL
0x8413500c 0000             ADD [EAX], AL
0x8413500e 0000             ADD [EAX], AL
0x84135010 0000             ADD [EAX], AL
0x84135012 0000             ADD [EAX], AL
0x84135014 0000             ADD [EAX], AL
0x84135016 0000             ADD [EAX], AL

